Component: ARM Compiler 5.06 update 7 (build 960) Tool: armlink [4d3601]

==============================================================================

Section Cross References

    main.o(i.AnalogRTC) refers to pcf8563.o(i.ReadTime) for ReadTime
    main.o(i.AnalogRTC) refers to main.o(.data) for Time
    main.o(i.AppTaskCreate) refers to os_task.o(i.OSTaskCreate) for OSTaskCreate
    main.o(i.AppTaskCreate) refers to main.o(.bss) for Task0Stk
    main.o(i.AppTaskCreate) refers to main.o(i.Task0) for Task0
    main.o(i.AppTaskCreate) refers to main.o(i.Task1) for Task1
    main.o(i.AppTaskCreate) refers to main.o(i.Task2) for Task2
    main.o(i.AppTaskCreate) refers to main.o(i.Task3) for Task3
    main.o(i.AppTaskCreate) refers to main.o(i.Task4) for Task4
    main.o(i.AppTaskCreate) refers to main.o(i.Task5) for Task5
    main.o(i.AppTaskCreate) refers to main.o(i.Task6) for Task6
    main.o(i.AppTaskCreate) refers to main.o(i.Task7) for Task7
    main.o(i.PowerDetection) refers to os_cpu_a.o(.text) for OS_CPU_SR_Save
    main.o(i.PowerDetection) refers to adc.o(i.GetVin) for GetVin
    main.o(i.PowerDetection) refers to calc.o(i.PowerDownEvent) for PowerDownEvent
    main.o(i.PowerDetection) refers to memory.o(i.WritePar) for WritePar
    main.o(i.PowerDetection) refers to delay_io_nvic_init.o(i.Delayms) for Delayms
    main.o(i.PowerDetection) refers to delay_io_nvic_init.o(i.IWDG_Reset) for IWDG_Reset
    main.o(i.PowerDetection) refers to main.o(.data) for Vin
    main.o(i.SysTick_init) refers to stm32f10x_rcc.o(i.RCC_GetClocksFreq) for RCC_GetClocksFreq
    main.o(i.Task0) refers to os_time.o(i.OSTimeDly) for OSTimeDly
    main.o(i.Task0) refers to main.o(i.PowerDetection) for PowerDetection
    main.o(i.Task0) refers to main.o(.data) for Scnt
    main.o(i.Task0) refers to main.o(.bss) for RunTime
    main.o(i.Task1) refers to stm32f10x_gpio.o(i.GPIO_SetBits) for GPIO_SetBits
    main.o(i.Task1) refers to os_time.o(i.OSTimeDly) for OSTimeDly
    main.o(i.Task2) refers to os_time.o(i.OSTimeDly) for OSTimeDly
    main.o(i.Task3) refers to memory.o(i.ReadPar) for ReadPar
    main.o(i.Task3) refers to os_time.o(i.OSTimeDly) for OSTimeDly
    main.o(i.Task3) refers to com.o(i.COM3Init) for COM3Init
    main.o(i.Task3) refers to memory.o(i.WritePar) for WritePar
    main.o(i.Task3) refers to main.o(.bss) for Cfg
    main.o(i.Task3) refers to main.o(.data) for Old_ComCfg
    main.o(i.Task4) refers to pcf8563.o(i.ReadTime) for ReadTime
    main.o(i.Task4) refers to calc.o(i.CalRatio) for CalRatio
    main.o(i.Task4) refers to os_time.o(i.OSTimeDly) for OSTimeDly
    main.o(i.Task4) refers to calc.o(i.DateChange) for DateChange
    main.o(i.Task4) refers to calc.o(i.EventRecord) for EventRecord
    main.o(i.Task4) refers to main.o(i.AnalogRTC) for AnalogRTC
    main.o(i.Task4) refers to timer.o(i.Out4_20mA) for Out4_20mA
    main.o(i.Task4) refers to main.o(.data) for Time
    main.o(i.Task5) refers to os_time.o(i.OSTimeDly) for OSTimeDly
    main.o(i.Task5) refers to relay.o(i.RelayTask) for RelayTask
    main.o(i.Task6) refers to os_time.o(i.OSTimeDly) for OSTimeDly
    main.o(i.Task6) refers to disp.o(i.Disp) for Disp
    main.o(i.Task7) refers to os_time.o(i.OSTimeDly) for OSTimeDly
    main.o(i.Task7) refers to com.o(i.COM4Init) for COM4Init
    main.o(i.main) refers to main.o(i.Get_JTAG_ID) for Get_JTAG_ID
    main.o(i.main) refers to delay_io_nvic_init.o(i.IO_Init) for IO_Init
    main.o(i.main) refers to adc.o(i.ADC1Init) for ADC1Init
    main.o(i.main) refers to delay_io_nvic_init.o(i.Delayms) for Delayms
    main.o(i.main) refers to adc.o(i.GetVin) for GetVin
    main.o(i.main) refers to timer.o(i.TIM3Init) for TIM3Init
    main.o(i.main) refers to timer.o(i.TIM4Init) for TIM4Init
    main.o(i.main) refers to com.o(i.COM1Init) for COM1Init
    main.o(i.main) refers to com.o(i.COM2Init) for COM2Init
    main.o(i.main) refers to delay_io_nvic_init.o(i.NVIC_Configuration) for NVIC_Configuration
    main.o(i.main) refers to main.o(i.SysTick_init) for SysTick_init
    main.o(i.main) refers to os_core.o(i.OSInit) for OSInit
    main.o(i.main) refers to main.o(i.AppTaskCreate) for AppTaskCreate
    main.o(i.main) refers to os_core.o(i.OSStart) for OSStart
    main.o(i.main) refers to main.o(.data) for CPU_Type
    disp.o(i.Disp) refers to ptu5x.o(i.GetUstcDis2) for GetUstcDis2
    disp.o(i.Disp) refers to os_time.o(i.OSTimeDly) for OSTimeDly
    disp.o(i.Disp) refers to disp.o(i.DispBackCheck) for DispBackCheck
    disp.o(i.Disp) refers to ptu5x.o(i.GetUstcToPC) for GetUstcToPC
    disp.o(i.Disp) refers to disp.o(i.Disp_WrInt) for Disp_WrInt
    disp.o(i.Disp) refers to disp.o(i.Disp_WrFloat) for Disp_WrFloat
    disp.o(i.Disp) refers to disp.o(i.HighPstDis) for HighPstDis
    disp.o(i.Disp) refers to disp.o(i.Disp_WrRtc) for Disp_WrRtc
    disp.o(i.Disp) refers to main.o(.data) for UsLevelmm
    disp.o(i.Disp) refers to main.o(.bss) for Cfg
    disp.o(i.DispBackCheck) refers to disp.o(i.RxDataAnalyze) for RxDataAnalyze
    disp.o(i.DispBackCheck) refers to main.o(.data) for Rx4Num
    disp.o(i.DispBackCheck) refers to disp.o(.data) for numhist
    disp.o(i.DispBackCheck) refers to main.o(.bss) for Rx4Buf
    disp.o(i.Disp_ReadPic) refers to disp.o(i.Disp_SendArr) for Disp_SendArr
    disp.o(i.Disp_ReadPic) refers to os_time.o(i.OSTimeDly) for OSTimeDly
    disp.o(i.Disp_ReadPic) refers to main.o(.data) for Rx4Num
    disp.o(i.Disp_ReadPic) refers to disp.o(.data) for ArrCnt
    disp.o(i.Disp_ReadPic) refers to disp.o(.bss) for Arr
    disp.o(i.Disp_ReadPic) refers to main.o(.bss) for Rx4Buf
    disp.o(i.Disp_Rst) refers to disp.o(i.Disp_SendArr) for Disp_SendArr
    disp.o(i.Disp_Rst) refers to disp.o(.constdata) for DispRst
    disp.o(i.Disp_SendArr) refers to disp.o(i.Disp_SendData) for Disp_SendData
    disp.o(i.Disp_SendData) refers to stm32f10x_usart.o(i.USART_GetFlagStatus) for USART_GetFlagStatus
    disp.o(i.Disp_SendData) refers to stm32f10x_usart.o(i.USART_SendData) for USART_SendData
    disp.o(i.Disp_SetPic) refers to disp.o(i.Disp_SendArr) for Disp_SendArr
    disp.o(i.Disp_SetPic) refers to disp.o(.data) for ArrCnt
    disp.o(i.Disp_SetPic) refers to disp.o(.bss) for Arr
    disp.o(i.Disp_WrFloat) refers to modbusprotocol.o(i.FloatToCh) for FloatToCh
    disp.o(i.Disp_WrFloat) refers to disp.o(i.Disp_SendArr) for Disp_SendArr
    disp.o(i.Disp_WrFloat) refers to disp.o(.data) for ArrCnt
    disp.o(i.Disp_WrFloat) refers to disp.o(.bss) for Arr
    disp.o(i.Disp_WrInt) refers to disp.o(i.Disp_SendArr) for Disp_SendArr
    disp.o(i.Disp_WrInt) refers to disp.o(.data) for ArrCnt
    disp.o(i.Disp_WrInt) refers to disp.o(.bss) for Arr
    disp.o(i.Disp_WrRtc) refers to disp.o(i.Disp_SendArr) for Disp_SendArr
    disp.o(i.Disp_WrRtc) refers to disp.o(.data) for ArrCnt
    disp.o(i.Disp_WrRtc) refers to disp.o(.bss) for Arr
    disp.o(i.Disp_WrRtc) refers to main.o(.data) for Time
    disp.o(i.Disp_WrStr) refers to disp.o(i.Disp_SendArr) for Disp_SendArr
    disp.o(i.Disp_WrStr) refers to disp.o(.data) for ArrCnt
    disp.o(i.Disp_WrStr) refers to disp.o(.bss) for Arr
    disp.o(i.HighPstDis) refers to cfrcmple.o(.text) for __aeabi_cfrcmple
    disp.o(i.HighPstDis) refers to cfcmple.o(.text) for __aeabi_cfcmple
    disp.o(i.HighPstDis) refers to fmul.o(.text) for __aeabi_fmul
    disp.o(i.HighPstDis) refers to f2d.o(.text) for __aeabi_f2d
    disp.o(i.HighPstDis) refers to ddiv.o(.text) for __aeabi_ddiv
    disp.o(i.HighPstDis) refers to dadd.o(.text) for __aeabi_drsub
    disp.o(i.HighPstDis) refers to dfixui.o(.text) for __aeabi_d2uiz
    disp.o(i.HighPstDis) refers to disp.o(i.Disp_SendArr) for Disp_SendArr
    disp.o(i.HighPstDis) refers to disp.o(.data) for ArrCnt
    disp.o(i.HighPstDis) refers to disp.o(.bss) for Arr
    disp.o(i.RxDataAnalyze) refers to disp.o(i.UsConfigSet) for UsConfigSet
    disp.o(i.RxDataAnalyze) refers to memory.o(i.WriteCfg) for WriteCfg
    disp.o(i.RxDataAnalyze) refers to main.o(.data) for UsBlindDis
    disp.o(i.RxDataAnalyze) refers to main.o(.bss) for Cfg
    disp.o(i.UsConfigSet) refers to ptu5x.o(i.UsDataSend) for UsDataSend
    calc.o(i.CalConvertData) refers to calc.o(i.CalFlow) for CalFlow
    calc.o(i.CalConvertData) refers to calc.o(i.CalFlowQ) for CalFlowQ
    calc.o(i.CalConvertData) refers to calc.o(i.CalHeatQ) for CalHeatQ
    calc.o(i.CalFlow) refers to fmul.o(.text) for __aeabi_fmul
    calc.o(i.CalFlow) refers to cfrcmple.o(.text) for __aeabi_cfrcmple
    calc.o(i.CalFlow) refers to cfcmple.o(.text) for __aeabi_cfcmple
    calc.o(i.CalFlow) refers to main.o(.data) for AveTimeDiff
    calc.o(i.CalFlow) refers to calc.o(.data) for F_FlowThreshold
    calc.o(i.CalFlowQ) refers to fmul.o(.text) for __aeabi_fmul
    calc.o(i.CalFlowQ) refers to main.o(.data) for Flow
    calc.o(i.CalFlowQRatio) refers to dfltui.o(.text) for __aeabi_ui2d
    calc.o(i.CalFlowQRatio) refers to dmul.o(.text) for __aeabi_dmul
    calc.o(i.CalFlowQRatio) refers to d2f.o(.text) for __aeabi_d2f
    calc.o(i.CalFlowQRatio) refers to main.o(.bss) for Cfg
    calc.o(i.CalFlowQRatio) refers to main.o(.data) for FlowQRatio
    calc.o(i.CalFlowRatio) refers to dfltui.o(.text) for __aeabi_ui2d
    calc.o(i.CalFlowRatio) refers to dmul.o(.text) for __aeabi_dmul
    calc.o(i.CalFlowRatio) refers to tan.o(i.tan) for tan
    calc.o(i.CalFlowRatio) refers to dflti.o(.text) for __aeabi_i2d
    calc.o(i.CalFlowRatio) refers to ffltui.o(.text) for __aeabi_ui2f
    calc.o(i.CalFlowRatio) refers to fmul.o(.text) for __aeabi_fmul
    calc.o(i.CalFlowRatio) refers to f2d.o(.text) for __aeabi_f2d
    calc.o(i.CalFlowRatio) refers to ddiv.o(.text) for __aeabi_ddiv
    calc.o(i.CalFlowRatio) refers to d2f.o(.text) for __aeabi_d2f
    calc.o(i.CalFlowRatio) refers to fflti.o(.text) for __aeabi_i2f
    calc.o(i.CalFlowRatio) refers to fdiv.o(.text) for __aeabi_fdiv
    calc.o(i.CalFlowRatio) refers to main.o(.bss) for Cfg
    calc.o(i.CalFlowRatio) refers to main.o(.data) for FlowRatio
    calc.o(i.CalFlowRatio) refers to calc.o(.data) for F_FlowThreshold
    calc.o(i.CalHeatQ) refers to fflti.o(.text) for __aeabi_i2f
    calc.o(i.CalHeatQ) refers to fmul.o(.text) for __aeabi_fmul
    calc.o(i.CalHeatQ) refers to main.o(.data) for HeatTemp
    calc.o(i.CalHeatQRatio) refers to ffltui.o(.text) for __aeabi_ui2f
    calc.o(i.CalHeatQRatio) refers to fmul.o(.text) for __aeabi_fmul
    calc.o(i.CalHeatQRatio) refers to fdiv.o(.text) for __aeabi_fdiv
    calc.o(i.CalHeatQRatio) refers to main.o(.bss) for Cfg
    calc.o(i.CalHeatQRatio) refers to main.o(.data) for HeatQRatio
    calc.o(i.CalRatio) refers to calc.o(i.CalFlowRatio) for CalFlowRatio
    calc.o(i.CalRatio) refers to calc.o(i.CalFlowQRatio) for CalFlowQRatio
    calc.o(i.CalRatio) refers to calc.o(i.CalHeatQRatio) for CalHeatQRatio
    calc.o(i.CalcAveTimeDiff) refers to cfrcmple.o(.text) for __aeabi_cfrcmple
    calc.o(i.CalcAveTimeDiff) refers to cfcmple.o(.text) for __aeabi_cfcmple
    calc.o(i.CalcAveTimeDiff) refers to fmul.o(.text) for __aeabi_fmul
    calc.o(i.CalcAveTimeDiff) refers to fadd.o(.text) for __aeabi_fadd
    calc.o(i.CalcAveTimeDiff) refers to fdiv.o(.text) for __aeabi_fdiv
    calc.o(i.CalcAveTimeDiff) refers to ffltui.o(.text) for __aeabi_ui2f
    calc.o(i.CalcAveTimeDiff) refers to main.o(.bss) for FlowMeter1
    calc.o(i.CalcAveTimeDiff) refers to calc.o(.data) for F_TimeDiffThreshold
    calc.o(i.CalcAveTimeDiff) refers to calc.o(.constdata) for JQ
    calc.o(i.CalcAveTimeDiff) refers to main.o(.data) for Fault
    calc.o(i.DateChange) refers to calc.o(i.WriteYearHis) for WriteYearHis
    calc.o(i.DateChange) refers to calc.o(i.WriteMonHis) for WriteMonHis
    calc.o(i.DateChange) refers to calc.o(i.WriteDayHis) for WriteDayHis
    calc.o(i.DateChange) refers to main.o(.data) for Time
    calc.o(i.DateChange) refers to main.o(.bss) for SumFlowQ
    calc.o(i.EventRecord) refers to fm25cl64.o(i.WriteFM) for WriteFM
    calc.o(i.EventRecord) refers to cfcmple.o(.text) for __aeabi_cfcmple
    calc.o(i.EventRecord) refers to cfrcmple.o(.text) for __aeabi_cfrcmple
    calc.o(i.EventRecord) refers to main.o(.data) for Vin
    calc.o(i.EventRecord) refers to calc.o(.data) for UnderVoltageEvent
    calc.o(i.EventRecord) refers to main.o(.bss) for HisP
    calc.o(i.OutOCT) refers to dfltui.o(.text) for __aeabi_ui2d
    calc.o(i.OutOCT) refers to dflti.o(.text) for __aeabi_i2d
    calc.o(i.OutOCT) refers to ddiv.o(.text) for __aeabi_ddiv
    calc.o(i.OutOCT) refers to f2d.o(.text) for __aeabi_f2d
    calc.o(i.OutOCT) refers to dadd.o(.text) for __aeabi_dadd
    calc.o(i.OutOCT) refers to d2f.o(.text) for __aeabi_d2f
    calc.o(i.OutOCT) refers to ffixui.o(.text) for __aeabi_f2uiz
    calc.o(i.OutOCT) refers to ffltui.o(.text) for __aeabi_ui2f
    calc.o(i.OutOCT) refers to fadd.o(.text) for __aeabi_frsub
    calc.o(i.OutOCT) refers to stm32f10x_tim.o(i.TIM_GetITStatus) for TIM_GetITStatus
    calc.o(i.OutOCT) refers to stm32f10x_tim.o(i.TIM_GetCounter) for TIM_GetCounter
    calc.o(i.OutOCT) refers to stm32f10x_tim.o(i.TIM_SetCompare1) for TIM_SetCompare1
    calc.o(i.OutOCT) refers to stm32f10x_tim.o(i.TIM_ITConfig) for TIM_ITConfig
    calc.o(i.OutOCT) refers to main.o(.bss) for Cfg
    calc.o(i.OutOCT) refers to calc.o(.data) for DecimalPout
    calc.o(i.OutOCT) refers to main.o(.data) for PoutN
    calc.o(i.PowerDownEvent) refers to dfltl.o(.text) for __aeabi_l2d
    calc.o(i.PowerDownEvent) refers to ddiv.o(.text) for __aeabi_ddiv
    calc.o(i.PowerDownEvent) refers to d2f.o(.text) for __aeabi_d2f
    calc.o(i.PowerDownEvent) refers to modbusprotocol.o(i.FloatToCh) for FloatToCh
    calc.o(i.PowerDownEvent) refers to fm25cl64.o(i.WriteFM) for WriteFM
    calc.o(i.PowerDownEvent) refers to main.o(.data) for Time
    calc.o(i.PowerDownEvent) refers to main.o(.bss) for SumFlowQ
    calc.o(i.Sum_FlowQ) refers to f2d.o(.text) for __aeabi_f2d
    calc.o(i.Sum_FlowQ) refers to dmul.o(.text) for __aeabi_dmul
    calc.o(i.Sum_FlowQ) refers to dfixi.o(.text) for __aeabi_d2iz
    calc.o(i.Sum_FlowQ) refers to calc.o(i.OutOCT) for OutOCT
    calc.o(i.Sum_FlowQ) refers to main.o(.data) for FlowQ
    calc.o(i.Sum_FlowQ) refers to main.o(.bss) for SumFlowQ
    calc.o(i.Sum_HeatQ) refers to ffixi.o(.text) for __aeabi_f2iz
    calc.o(i.Sum_HeatQ) refers to main.o(.data) for HeatQ
    calc.o(i.Sum_HeatQ) refers to main.o(.bss) for SumHeatQ
    calc.o(i.WriteDayHis) refers to dfltl.o(.text) for __aeabi_l2d
    calc.o(i.WriteDayHis) refers to ddiv.o(.text) for __aeabi_ddiv
    calc.o(i.WriteDayHis) refers to d2f.o(.text) for __aeabi_d2f
    calc.o(i.WriteDayHis) refers to modbusprotocol.o(i.FloatToCh) for FloatToCh
    calc.o(i.WriteDayHis) refers to fm25cl64.o(i.WriteFM) for WriteFM
    calc.o(i.WriteDayHis) refers to main.o(.data) for Time
    calc.o(i.WriteDayHis) refers to main.o(.bss) for SumFlowQ
    calc.o(i.WriteMonHis) refers to dfltl.o(.text) for __aeabi_l2d
    calc.o(i.WriteMonHis) refers to ddiv.o(.text) for __aeabi_ddiv
    calc.o(i.WriteMonHis) refers to d2f.o(.text) for __aeabi_d2f
    calc.o(i.WriteMonHis) refers to modbusprotocol.o(i.FloatToCh) for FloatToCh
    calc.o(i.WriteMonHis) refers to fm25cl64.o(i.WriteFM) for WriteFM
    calc.o(i.WriteMonHis) refers to main.o(.data) for Time
    calc.o(i.WriteMonHis) refers to main.o(.bss) for SumFlowQ
    calc.o(i.WriteYearHis) refers to dfltl.o(.text) for __aeabi_l2d
    calc.o(i.WriteYearHis) refers to ddiv.o(.text) for __aeabi_ddiv
    calc.o(i.WriteYearHis) refers to d2f.o(.text) for __aeabi_d2f
    calc.o(i.WriteYearHis) refers to modbusprotocol.o(i.FloatToCh) for FloatToCh
    calc.o(i.WriteYearHis) refers to fm25cl64.o(i.WriteFM) for WriteFM
    calc.o(i.WriteYearHis) refers to main.o(.data) for Time
    calc.o(i.WriteYearHis) refers to main.o(.bss) for SumFlowQ
    crc.o(i.CalCRC16) refers to crc.o(.constdata) for auchCRCHi
    fm25cl64.o(i.FM_Rec) refers to stm32f10x_gpio.o(i.GPIO_ResetBits) for GPIO_ResetBits
    fm25cl64.o(i.FM_Rec) refers to stm32f10x_gpio.o(i.GPIO_ReadInputDataBit) for GPIO_ReadInputDataBit
    fm25cl64.o(i.FM_Rec) refers to stm32f10x_gpio.o(i.GPIO_SetBits) for GPIO_SetBits
    fm25cl64.o(i.FM_Send) refers to stm32f10x_gpio.o(i.GPIO_SetBits) for GPIO_SetBits
    fm25cl64.o(i.FM_Send) refers to stm32f10x_gpio.o(i.GPIO_ResetBits) for GPIO_ResetBits
    fm25cl64.o(i.ReadFM) refers to stm32f10x_gpio.o(i.GPIO_ResetBits) for GPIO_ResetBits
    fm25cl64.o(i.ReadFM) refers to fm25cl64.o(i.FM_Send) for FM_Send
    fm25cl64.o(i.ReadFM) refers to fm25cl64.o(i.FM_Rec) for FM_Rec
    fm25cl64.o(i.ReadFM) refers to stm32f10x_gpio.o(i.GPIO_SetBits) for GPIO_SetBits
    fm25cl64.o(i.Read_FM25CL64_Byte) refers to stm32f10x_gpio.o(i.GPIO_ResetBits) for GPIO_ResetBits
    fm25cl64.o(i.Read_FM25CL64_Byte) refers to fm25cl64.o(i.FM_Send) for FM_Send
    fm25cl64.o(i.Read_FM25CL64_Byte) refers to fm25cl64.o(i.FM_Rec) for FM_Rec
    fm25cl64.o(i.Read_FM25CL64_Byte) refers to stm32f10x_gpio.o(i.GPIO_SetBits) for GPIO_SetBits
    fm25cl64.o(i.WriteFM) refers to fm25cl64.o(i.Write_Enable) for Write_Enable
    fm25cl64.o(i.WriteFM) refers to stm32f10x_gpio.o(i.GPIO_ResetBits) for GPIO_ResetBits
    fm25cl64.o(i.WriteFM) refers to fm25cl64.o(i.FM_Send) for FM_Send
    fm25cl64.o(i.WriteFM) refers to stm32f10x_gpio.o(i.GPIO_SetBits) for GPIO_SetBits
    fm25cl64.o(i.WriteFM) refers to fm25cl64.o(i.Write_Disable) for Write_Disable
    fm25cl64.o(i.WriteFMFill) refers to fm25cl64.o(i.Write_Enable) for Write_Enable
    fm25cl64.o(i.WriteFMFill) refers to stm32f10x_gpio.o(i.GPIO_ResetBits) for GPIO_ResetBits
    fm25cl64.o(i.WriteFMFill) refers to fm25cl64.o(i.FM_Send) for FM_Send
    fm25cl64.o(i.WriteFMFill) refers to stm32f10x_gpio.o(i.GPIO_SetBits) for GPIO_SetBits
    fm25cl64.o(i.WriteFMFill) refers to fm25cl64.o(i.Write_Disable) for Write_Disable
    fm25cl64.o(i.Write_Disable) refers to stm32f10x_gpio.o(i.GPIO_ResetBits) for GPIO_ResetBits
    fm25cl64.o(i.Write_Disable) refers to fm25cl64.o(i.FM_Send) for FM_Send
    fm25cl64.o(i.Write_Disable) refers to stm32f10x_gpio.o(i.GPIO_SetBits) for GPIO_SetBits
    fm25cl64.o(i.Write_Enable) refers to stm32f10x_gpio.o(i.GPIO_ResetBits) for GPIO_ResetBits
    fm25cl64.o(i.Write_Enable) refers to fm25cl64.o(i.FM_Send) for FM_Send
    fm25cl64.o(i.Write_Enable) refers to stm32f10x_gpio.o(i.GPIO_SetBits) for GPIO_SetBits
    fm25cl64.o(i.Write_FM25CL64_Byte) refers to fm25cl64.o(i.Write_Enable) for Write_Enable
    fm25cl64.o(i.Write_FM25CL64_Byte) refers to stm32f10x_gpio.o(i.GPIO_ResetBits) for GPIO_ResetBits
    fm25cl64.o(i.Write_FM25CL64_Byte) refers to fm25cl64.o(i.FM_Send) for FM_Send
    fm25cl64.o(i.Write_FM25CL64_Byte) refers to stm32f10x_gpio.o(i.GPIO_SetBits) for GPIO_SetBits
    fm25cl64.o(i.Write_FM25CL64_Byte) refers to fm25cl64.o(i.Write_Disable) for Write_Disable
    timer.o(i.Out4_20mA) refers to ffltui.o(.text) for __aeabi_ui2f
    timer.o(i.Out4_20mA) refers to cfrcmple.o(.text) for __aeabi_cfrcmple
    timer.o(i.Out4_20mA) refers to cfcmple.o(.text) for __aeabi_cfcmple
    timer.o(i.Out4_20mA) refers to dflti.o(.text) for __aeabi_i2d
    timer.o(i.Out4_20mA) refers to fadd.o(.text) for __aeabi_frsub
    timer.o(i.Out4_20mA) refers to f2d.o(.text) for __aeabi_f2d
    timer.o(i.Out4_20mA) refers to dmul.o(.text) for __aeabi_dmul
    timer.o(i.Out4_20mA) refers to ddiv.o(.text) for __aeabi_ddiv
    timer.o(i.Out4_20mA) refers to dfixui.o(.text) for __aeabi_d2uiz
    timer.o(i.Out4_20mA) refers to timer.o(i.SetIuA) for SetIuA
    timer.o(i.Out4_20mA) refers to main.o(.bss) for Cfg
    timer.o(i.Out4_20mA) refers to main.o(.data) for FlowQ
    timer.o(i.SetIuA) refers to stm32f10x_tim.o(i.TIM_SetCompare3) for TIM_SetCompare3
    timer.o(i.TIM3Init) refers to stm32f10x_rcc.o(i.RCC_APB1PeriphClockCmd) for RCC_APB1PeriphClockCmd
    timer.o(i.TIM3Init) refers to stm32f10x_tim.o(i.TIM_DeInit) for TIM_DeInit
    timer.o(i.TIM3Init) refers to stm32f10x_tim.o(i.TIM_TimeBaseInit) for TIM_TimeBaseInit
    timer.o(i.TIM3Init) refers to stm32f10x_tim.o(i.TIM_OC3Init) for TIM_OC3Init
    timer.o(i.TIM3Init) refers to timer.o(i.SetIuA) for SetIuA
    timer.o(i.TIM3Init) refers to stm32f10x_tim.o(i.TIM_Cmd) for TIM_Cmd
    timer.o(i.TIM3Init) refers to main.o(.data) for IuA
    timer.o(i.TIM4Init) refers to stm32f10x_rcc.o(i.RCC_APB1PeriphClockCmd) for RCC_APB1PeriphClockCmd
    timer.o(i.TIM4Init) refers to stm32f10x_tim.o(i.TIM_DeInit) for TIM_DeInit
    timer.o(i.TIM4Init) refers to stm32f10x_tim.o(i.TIM_TimeBaseInit) for TIM_TimeBaseInit
    timer.o(i.TIM4Init) refers to stm32f10x_tim.o(i.TIM_ClearFlag) for TIM_ClearFlag
    timer.o(i.TIM4Init) refers to stm32f10x_tim.o(i.TIM_Cmd) for TIM_Cmd
    timer.o(i.TIM4_IRQHandler) refers to stm32f10x_tim.o(i.TIM_GetITStatus) for TIM_GetITStatus
    timer.o(i.TIM4_IRQHandler) refers to stm32f10x_tim.o(i.TIM_ClearITPendingBit) for TIM_ClearITPendingBit
    timer.o(i.TIM4_IRQHandler) refers to stm32f10x_tim.o(i.TIM_GetCapture1) for TIM_GetCapture1
    timer.o(i.TIM4_IRQHandler) refers to stm32f10x_tim.o(i.TIM_SetCompare1) for TIM_SetCompare1
    timer.o(i.TIM4_IRQHandler) refers to stm32f10x_gpio.o(i.GPIO_SetBits) for GPIO_SetBits
    timer.o(i.TIM4_IRQHandler) refers to stm32f10x_gpio.o(i.GPIO_ResetBits) for GPIO_ResetBits
    timer.o(i.TIM4_IRQHandler) refers to stm32f10x_tim.o(i.TIM_ITConfig) for TIM_ITConfig
    timer.o(i.TIM4_IRQHandler) refers to timer.o(.data) for Flag
    timer.o(i.TIM4_IRQHandler) refers to main.o(.data) for PHCnt
    flowmeterhandle.o(i.COM1_SendRecProcess) refers to os_time.o(i.OSTimeDly) for OSTimeDly
    flowmeterhandle.o(i.COM1_SendRecProcess) refers to crc.o(i.CalCRC16) for CalCRC16
    flowmeterhandle.o(i.COM1_SendRecProcess) refers to main.o(.data) for Rx1Num
    flowmeterhandle.o(i.COM1_SendRecProcess) refers to main.o(.bss) for Rx1Buf
    flowmeterhandle.o(i.COM2_SendRecProcess) refers to os_time.o(i.OSTimeDly) for OSTimeDly
    flowmeterhandle.o(i.COM2_SendRecProcess) refers to crc.o(i.CalCRC16) for CalCRC16
    flowmeterhandle.o(i.COM2_SendRecProcess) refers to main.o(.data) for Rx2Num
    flowmeterhandle.o(i.COM2_SendRecProcess) refers to main.o(.bss) for Rx2Buf
    flowmeterhandle.o(i.DataAnalysis) refers to modbusprotocol.o(i.ChToINT16) for ChToINT16
    flowmeterhandle.o(i.DataAnalysis) refers to modbusprotocol.o(i.ChToFloat) for ChToFloat
    flowmeterhandle.o(i.GetFlowMeter1) refers to modbusprotocol.o(i.INT16ToCh) for INT16ToCh
    flowmeterhandle.o(i.GetFlowMeter1) refers to crc.o(i.CalCRC16) for CalCRC16
    flowmeterhandle.o(i.GetFlowMeter1) refers to com.o(i.Tx1Send) for Tx1Send
    flowmeterhandle.o(i.GetFlowMeter1) refers to flowmeterhandle.o(i.COM1_SendRecProcess) for COM1_SendRecProcess
    flowmeterhandle.o(i.GetFlowMeter1) refers to flowmeterhandle.o(i.DataAnalysis) for DataAnalysis
    flowmeterhandle.o(i.GetFlowMeter1) refers to dflti.o(.text) for __aeabi_i2d
    flowmeterhandle.o(i.GetFlowMeter1) refers to ddiv.o(.text) for __aeabi_ddiv
    flowmeterhandle.o(i.GetFlowMeter1) refers to f2d.o(.text) for __aeabi_f2d
    flowmeterhandle.o(i.GetFlowMeter1) refers to dadd.o(.text) for __aeabi_dadd
    flowmeterhandle.o(i.GetFlowMeter1) refers to d2f.o(.text) for __aeabi_d2f
    flowmeterhandle.o(i.GetFlowMeter1) refers to dmul.o(.text) for __aeabi_dmul
    flowmeterhandle.o(i.GetFlowMeter1) refers to dfixi.o(.text) for __aeabi_d2iz
    flowmeterhandle.o(i.GetFlowMeter1) refers to memcpya.o(.text) for __aeabi_memcpy4
    flowmeterhandle.o(i.GetFlowMeter1) refers to main.o(.data) for Tx1Num
    flowmeterhandle.o(i.GetFlowMeter1) refers to main.o(.bss) for Tx1Buf
    flowmeterhandle.o(i.GetFlowMeter1) refers to flowmeterhandle.o(.data) for ErrCnt
    flowmeterhandle.o(i.GetFlowMeter2) refers to modbusprotocol.o(i.INT16ToCh) for INT16ToCh
    flowmeterhandle.o(i.GetFlowMeter2) refers to crc.o(i.CalCRC16) for CalCRC16
    flowmeterhandle.o(i.GetFlowMeter2) refers to com.o(i.Tx2Send) for Tx2Send
    flowmeterhandle.o(i.GetFlowMeter2) refers to flowmeterhandle.o(i.COM2_SendRecProcess) for COM2_SendRecProcess
    flowmeterhandle.o(i.GetFlowMeter2) refers to flowmeterhandle.o(i.DataAnalysis) for DataAnalysis
    flowmeterhandle.o(i.GetFlowMeter2) refers to dflti.o(.text) for __aeabi_i2d
    flowmeterhandle.o(i.GetFlowMeter2) refers to ddiv.o(.text) for __aeabi_ddiv
    flowmeterhandle.o(i.GetFlowMeter2) refers to f2d.o(.text) for __aeabi_f2d
    flowmeterhandle.o(i.GetFlowMeter2) refers to dadd.o(.text) for __aeabi_dadd
    flowmeterhandle.o(i.GetFlowMeter2) refers to d2f.o(.text) for __aeabi_d2f
    flowmeterhandle.o(i.GetFlowMeter2) refers to memcpya.o(.text) for __aeabi_memcpy4
    flowmeterhandle.o(i.GetFlowMeter2) refers to main.o(.data) for Tx2Num
    flowmeterhandle.o(i.GetFlowMeter2) refers to main.o(.bss) for Tx2Buf
    flowmeterhandle.o(i.GetFlowMeter2) refers to flowmeterhandle.o(.data) for ErrCnt
    modbusprotocol.o(i.MbRegRead) refers to modbusprotocol.o(i.INT16ToCh) for INT16ToCh
    modbusprotocol.o(i.MbRegRead) refers to f2d.o(.text) for __aeabi_f2d
    modbusprotocol.o(i.MbRegRead) refers to dmul.o(.text) for __aeabi_dmul
    modbusprotocol.o(i.MbRegRead) refers to dfixui.o(.text) for __aeabi_d2uiz
    modbusprotocol.o(i.MbRegRead) refers to dadd.o(.text) for __aeabi_dadd
    modbusprotocol.o(i.MbRegRead) refers to dfixi.o(.text) for __aeabi_d2iz
    modbusprotocol.o(i.MbRegRead) refers to modbusprotocol.o(i.FloatToCh) for FloatToCh
    modbusprotocol.o(i.MbRegRead) refers to dflti.o(.text) for __aeabi_i2d
    modbusprotocol.o(i.MbRegRead) refers to fflti.o(.text) for __aeabi_i2f
    modbusprotocol.o(i.MbRegRead) refers to ddiv.o(.text) for __aeabi_ddiv
    modbusprotocol.o(i.MbRegRead) refers to d2f.o(.text) for __aeabi_d2f
    modbusprotocol.o(i.MbRegRead) refers to ffltl.o(.text) for __aeabi_l2f
    modbusprotocol.o(i.MbRegRead) refers to main.o(.data) for AveSA
    modbusprotocol.o(i.MbRegRead) refers to main.o(.bss) for RunTime
    modbusprotocol.o(i.MbRegRead) refers to stm32f10x_tim.o(i.TIM_GetCounter) for TIM_GetCounter
    modbusprotocol.o(i.MbRegWrite) refers to modbusprotocol.o(i.ChToINT16) for ChToINT16
    modbusprotocol.o(i.MbRegWrite) refers to modbusprotocol.o(i.ChToFloat) for ChToFloat
    modbusprotocol.o(i.MbRegWrite) refers to f2d.o(.text) for __aeabi_f2d
    modbusprotocol.o(i.MbRegWrite) refers to dmul.o(.text) for __aeabi_dmul
    modbusprotocol.o(i.MbRegWrite) refers to dfixi.o(.text) for __aeabi_d2iz
    modbusprotocol.o(i.MbRegWrite) refers to cfcmple.o(.text) for __aeabi_cfcmpeq
    modbusprotocol.o(i.MbRegWrite) refers to fm25cl64.o(i.WriteFMFill) for WriteFMFill
    modbusprotocol.o(i.MbRegWrite) refers to main.o(.bss) for RunTime
    modbusprotocol.o(i.MbRegWrite) refers to main.o(.data) for WrCmd
    modbusprotocol.o(i.ModBusProtocol) refers to crc.o(i.CalCRC16) for CalCRC16
    modbusprotocol.o(i.ModBusProtocol) refers to modbusprotocol.o(i.ChToINT16) for ChToINT16
    modbusprotocol.o(i.ModBusProtocol) refers to fm25cl64.o(i.ReadFM) for ReadFM
    modbusprotocol.o(i.ModBusProtocol) refers to modbusprotocol.o(i.Read_Ret) for Read_Ret
    modbusprotocol.o(i.ModBusProtocol) refers to modbusprotocol.o(i.MbRegRead) for MbRegRead
    modbusprotocol.o(i.ModBusProtocol) refers to modbusprotocol.o(i.MbRegWrite) for MbRegWrite
    modbusprotocol.o(i.ModBusProtocol) refers to modbusprotocol.o(i.Write_Ret) for Write_Ret
    modbusprotocol.o(i.ModBusProtocol) refers to modbusprotocol.o(i.INT16ToCh) for INT16ToCh
    modbusprotocol.o(i.ModBusProtocol) refers to main.o(.bss) for Rx3Buf
    modbusprotocol.o(i.ModBusProtocol) refers to main.o(.data) for Rx3Num
    modbusprotocol.o(i.Read_Ret) refers to crc.o(i.CalCRC16) for CalCRC16
    modbusprotocol.o(i.Read_Ret) refers to modbusprotocol.o(i.INT16ToCh) for INT16ToCh
    modbusprotocol.o(i.Read_Ret) refers to com.o(i.Tx3Send) for Tx3Send
    modbusprotocol.o(i.Read_Ret) refers to main.o(.bss) for Rx3Buf
    modbusprotocol.o(i.Read_Ret) refers to main.o(.data) for Tx3Num
    modbusprotocol.o(i.Write_Ret) refers to crc.o(i.CalCRC16) for CalCRC16
    modbusprotocol.o(i.Write_Ret) refers to modbusprotocol.o(i.INT16ToCh) for INT16ToCh
    modbusprotocol.o(i.Write_Ret) refers to com.o(i.Tx3Send) for Tx3Send
    modbusprotocol.o(i.Write_Ret) refers to main.o(.bss) for Tx3Buf
    modbusprotocol.o(i.Write_Ret) refers to main.o(.data) for Tx3Num
    memory.o(i.ReadCfg) refers to fm25cl64.o(i.ReadFM) for ReadFM
    memory.o(i.ReadCfg) refers to crc.o(i.CalCRC16) for CalCRC16
    memory.o(i.ReadCfg) refers to memcpya.o(.text) for __aeabi_memcpy4
    memory.o(i.ReadCfg) refers to memseta.o(.text) for __aeabi_memclr4
    memory.o(i.ReadCfg) refers to memory.o(i.WriteCfg) for WriteCfg
    memory.o(i.ReadCfg) refers to main.o(.bss) for Cfg
    memory.o(i.ReadHisP) refers to fm25cl64.o(i.ReadFM) for ReadFM
    memory.o(i.ReadHisP) refers to crc.o(i.CalCRC16) for CalCRC16
    memory.o(i.ReadHisP) refers to memory.o(i.WriteHisP) for WriteHisP
    memory.o(i.ReadHisP) refers to fm25cl64.o(i.WriteFMFill) for WriteFMFill
    memory.o(i.ReadHisP) refers to main.o(.bss) for HisP
    memory.o(i.ReadPar) refers to memory.o(i.ReadCfg) for ReadCfg
    memory.o(i.ReadPar) refers to memory.o(i.ReadRunTime) for ReadRunTime
    memory.o(i.ReadPar) refers to memory.o(i.ReadSumFlowQ) for ReadSumFlowQ
    memory.o(i.ReadPar) refers to memory.o(i.ReadSumHeatQ) for ReadSumHeatQ
    memory.o(i.ReadPar) refers to memory.o(i.ReadHisP) for ReadHisP
    memory.o(i.ReadRunTime) refers to fm25cl64.o(i.ReadFM) for ReadFM
    memory.o(i.ReadRunTime) refers to crc.o(i.CalCRC16) for CalCRC16
    memory.o(i.ReadRunTime) refers to memory.o(i.WriteRunTime) for WriteRunTime
    memory.o(i.ReadRunTime) refers to main.o(.bss) for RunTime
    memory.o(i.ReadSumFlowQ) refers to fm25cl64.o(i.ReadFM) for ReadFM
    memory.o(i.ReadSumFlowQ) refers to crc.o(i.CalCRC16) for CalCRC16
    memory.o(i.ReadSumFlowQ) refers to memcpya.o(.text) for __aeabi_memcpy4
    memory.o(i.ReadSumFlowQ) refers to memseta.o(.text) for __aeabi_memclr4
    memory.o(i.ReadSumFlowQ) refers to memory.o(i.WriteSumFlowQ) for WriteSumFlowQ
    memory.o(i.ReadSumFlowQ) refers to main.o(.bss) for SumFlowQ
    memory.o(i.ReadSumHeatQ) refers to fm25cl64.o(i.ReadFM) for ReadFM
    memory.o(i.ReadSumHeatQ) refers to crc.o(i.CalCRC16) for CalCRC16
    memory.o(i.ReadSumHeatQ) refers to memcpya.o(.text) for __aeabi_memcpy4
    memory.o(i.ReadSumHeatQ) refers to memseta.o(.text) for __aeabi_memclr4
    memory.o(i.ReadSumHeatQ) refers to memory.o(i.WriteSumHeatQ) for WriteSumHeatQ
    memory.o(i.ReadSumHeatQ) refers to main.o(.bss) for SumHeatQ
    memory.o(i.TestFM) refers to fm25cl64.o(i.Write_FM25CL64_Byte) for Write_FM25CL64_Byte
    memory.o(i.TestFM) refers to fm25cl64.o(i.Read_FM25CL64_Byte) for Read_FM25CL64_Byte
    memory.o(i.WriteCfg) refers to crc.o(i.CalCRC16) for CalCRC16
    memory.o(i.WriteCfg) refers to fm25cl64.o(i.WriteFM) for WriteFM
    memory.o(i.WriteCfg) refers to main.o(.bss) for Cfg
    memory.o(i.WriteHisP) refers to crc.o(i.CalCRC16) for CalCRC16
    memory.o(i.WriteHisP) refers to fm25cl64.o(i.WriteFM) for WriteFM
    memory.o(i.WriteHisP) refers to main.o(.bss) for HisP
    memory.o(i.WritePar) refers to memory.o(i.WriteCfg) for WriteCfg
    memory.o(i.WritePar) refers to memory.o(i.WriteRunTime) for WriteRunTime
    memory.o(i.WritePar) refers to memory.o(i.WriteSumFlowQ) for WriteSumFlowQ
    memory.o(i.WritePar) refers to memory.o(i.WriteSumHeatQ) for WriteSumHeatQ
    memory.o(i.WritePar) refers to memory.o(i.WriteHisP) for WriteHisP
    memory.o(i.WritePar) refers to pcf8563.o(i.WriteTime) for WriteTime
    memory.o(i.WritePar) refers to main.o(.data) for WrCmd
    memory.o(i.WriteRunTime) refers to crc.o(i.CalCRC16) for CalCRC16
    memory.o(i.WriteRunTime) refers to fm25cl64.o(i.WriteFM) for WriteFM
    memory.o(i.WriteRunTime) refers to main.o(.bss) for RunTime
    memory.o(i.WriteSumFlowQ) refers to crc.o(i.CalCRC16) for CalCRC16
    memory.o(i.WriteSumFlowQ) refers to fm25cl64.o(i.WriteFM) for WriteFM
    memory.o(i.WriteSumFlowQ) refers to main.o(.bss) for SumFlowQ
    memory.o(i.WriteSumHeatQ) refers to crc.o(i.CalCRC16) for CalCRC16
    memory.o(i.WriteSumHeatQ) refers to fm25cl64.o(i.WriteFM) for WriteFM
    memory.o(i.WriteSumHeatQ) refers to main.o(.bss) for SumHeatQ
    pcf8563.o(i.Ack_I2c) refers to stm32f10x_gpio.o(i.GPIO_ResetBits) for GPIO_ResetBits
    pcf8563.o(i.Ack_I2c) refers to stm32f10x_gpio.o(i.GPIO_SetBits) for GPIO_SetBits
    pcf8563.o(i.Ack_I2c) refers to delay_io_nvic_init.o(i.Delayus) for Delayus
    pcf8563.o(i.RcvByte) refers to stm32f10x_gpio.o(i.GPIO_SetBits) for GPIO_SetBits
    pcf8563.o(i.RcvByte) refers to delay_io_nvic_init.o(i.Delayus) for Delayus
    pcf8563.o(i.RcvByte) refers to stm32f10x_gpio.o(i.GPIO_ResetBits) for GPIO_ResetBits
    pcf8563.o(i.RcvByte) refers to stm32f10x_gpio.o(i.GPIO_ReadInputDataBit) for GPIO_ReadInputDataBit
    pcf8563.o(i.ReadPCF8563) refers to pcf8563.o(i.Start_I2c) for Start_I2c
    pcf8563.o(i.ReadPCF8563) refers to pcf8563.o(i.SendByte) for SendByte
    pcf8563.o(i.ReadPCF8563) refers to pcf8563.o(i.RcvByte) for RcvByte
    pcf8563.o(i.ReadPCF8563) refers to pcf8563.o(i.Ack_I2c) for Ack_I2c
    pcf8563.o(i.ReadPCF8563) refers to pcf8563.o(i.Stop_I2c) for Stop_I2c
    pcf8563.o(i.ReadPCF8563) refers to pcf8563.o(.data) for ack
    pcf8563.o(i.ReadTime) refers to pcf8563.o(i.ReadPCF8563) for ReadPCF8563
    pcf8563.o(i.ReadTime) refers to main.o(.data) for Time
    pcf8563.o(i.SendByte) refers to stm32f10x_gpio.o(i.GPIO_SetBits) for GPIO_SetBits
    pcf8563.o(i.SendByte) refers to stm32f10x_gpio.o(i.GPIO_ResetBits) for GPIO_ResetBits
    pcf8563.o(i.SendByte) refers to delay_io_nvic_init.o(i.Delayus) for Delayus
    pcf8563.o(i.SendByte) refers to stm32f10x_gpio.o(i.GPIO_ReadInputDataBit) for GPIO_ReadInputDataBit
    pcf8563.o(i.SendByte) refers to pcf8563.o(.data) for ack
    pcf8563.o(i.Start_I2c) refers to stm32f10x_gpio.o(i.GPIO_SetBits) for GPIO_SetBits
    pcf8563.o(i.Start_I2c) refers to delay_io_nvic_init.o(i.Delayus) for Delayus
    pcf8563.o(i.Start_I2c) refers to stm32f10x_gpio.o(i.GPIO_ResetBits) for GPIO_ResetBits
    pcf8563.o(i.Stop_I2c) refers to stm32f10x_gpio.o(i.GPIO_ResetBits) for GPIO_ResetBits
    pcf8563.o(i.Stop_I2c) refers to delay_io_nvic_init.o(i.Delayus) for Delayus
    pcf8563.o(i.Stop_I2c) refers to stm32f10x_gpio.o(i.GPIO_SetBits) for GPIO_SetBits
    pcf8563.o(i.WritePCF8563) refers to pcf8563.o(i.Start_I2c) for Start_I2c
    pcf8563.o(i.WritePCF8563) refers to pcf8563.o(i.SendByte) for SendByte
    pcf8563.o(i.WritePCF8563) refers to pcf8563.o(i.Stop_I2c) for Stop_I2c
    pcf8563.o(i.WritePCF8563) refers to pcf8563.o(.data) for ack
    pcf8563.o(i.WriteTime) refers to pcf8563.o(i.WritePCF8563) for WritePCF8563
    pcf8563.o(i.WriteTime) refers to main.o(.data) for Time
    adc.o(i.ADC1Init) refers to stm32f10x_rcc.o(i.RCC_APB2PeriphClockCmd) for RCC_APB2PeriphClockCmd
    adc.o(i.ADC1Init) refers to stm32f10x_rcc.o(i.RCC_ADCCLKConfig) for RCC_ADCCLKConfig
    adc.o(i.ADC1Init) refers to stm32f10x_adc.o(i.ADC_Init) for ADC_Init
    adc.o(i.ADC1Init) refers to stm32f10x_adc.o(i.ADC_Cmd) for ADC_Cmd
    adc.o(i.ADC1Init) refers to delay_io_nvic_init.o(i.Delayus) for Delayus
    adc.o(i.ADC1Init) refers to stm32f10x_adc.o(i.ADC_ResetCalibration) for ADC_ResetCalibration
    adc.o(i.ADC1Init) refers to stm32f10x_adc.o(i.ADC_GetResetCalibrationStatus) for ADC_GetResetCalibrationStatus
    adc.o(i.ADC1Init) refers to stm32f10x_adc.o(i.ADC_StartCalibration) for ADC_StartCalibration
    adc.o(i.ADC1Init) refers to stm32f10x_adc.o(i.ADC_GetCalibrationStatus) for ADC_GetCalibrationStatus
    adc.o(i.GetVin) refers to stm32f10x_adc.o(i.ADC_RegularChannelConfig) for ADC_RegularChannelConfig
    adc.o(i.GetVin) refers to stm32f10x_adc.o(i.ADC_SoftwareStartConvCmd) for ADC_SoftwareStartConvCmd
    adc.o(i.GetVin) refers to delay_io_nvic_init.o(i.Delayus) for Delayus
    adc.o(i.GetVin) refers to stm32f10x_adc.o(i.ADC_GetConversionValue) for ADC_GetConversionValue
    delay_io_nvic_init.o(i.Delayms) refers to delay_io_nvic_init.o(i.Delayus) for Delayus
    delay_io_nvic_init.o(i.IO_Init) refers to stm32f10x_rcc.o(i.RCC_APB2PeriphClockCmd) for RCC_APB2PeriphClockCmd
    delay_io_nvic_init.o(i.IO_Init) refers to stm32f10x_gpio.o(i.GPIO_Init) for GPIO_Init
    delay_io_nvic_init.o(i.IO_Init) refers to stm32f10x_gpio.o(i.GPIO_ResetBits) for GPIO_ResetBits
    delay_io_nvic_init.o(i.IO_Init) refers to stm32f10x_gpio.o(i.GPIO_SetBits) for GPIO_SetBits
    delay_io_nvic_init.o(i.IWDG_Reset) refers to stm32f10x_iwdg.o(i.IWDG_WriteAccessCmd) for IWDG_WriteAccessCmd
    delay_io_nvic_init.o(i.IWDG_Reset) refers to stm32f10x_iwdg.o(i.IWDG_SetPrescaler) for IWDG_SetPrescaler
    delay_io_nvic_init.o(i.IWDG_Reset) refers to stm32f10x_iwdg.o(i.IWDG_SetReload) for IWDG_SetReload
    delay_io_nvic_init.o(i.IWDG_Reset) refers to stm32f10x_iwdg.o(i.IWDG_ReloadCounter) for IWDG_ReloadCounter
    delay_io_nvic_init.o(i.IWDG_Reset) refers to stm32f10x_iwdg.o(i.IWDG_Enable) for IWDG_Enable
    delay_io_nvic_init.o(i.NVIC_Configuration) refers to misc.o(i.NVIC_PriorityGroupConfig) for NVIC_PriorityGroupConfig
    delay_io_nvic_init.o(i.NVIC_Configuration) refers to misc.o(i.NVIC_Init) for NVIC_Init
    com.o(i.COM1Init) refers to stm32f10x_rcc.o(i.RCC_APB2PeriphClockCmd) for RCC_APB2PeriphClockCmd
    com.o(i.COM1Init) refers to stm32f10x_usart.o(i.USART_Init) for USART_Init
    com.o(i.COM1Init) refers to stm32f10x_usart.o(i.USART_Cmd) for USART_Cmd
    com.o(i.COM1Init) refers to stm32f10x_usart.o(i.USART_ITConfig) for USART_ITConfig
    com.o(i.COM1Init) refers to stm32f10x_gpio.o(i.GPIO_ResetBits) for GPIO_ResetBits
    com.o(i.COM2Init) refers to stm32f10x_rcc.o(i.RCC_APB1PeriphClockCmd) for RCC_APB1PeriphClockCmd
    com.o(i.COM2Init) refers to stm32f10x_usart.o(i.USART_Init) for USART_Init
    com.o(i.COM2Init) refers to stm32f10x_usart.o(i.USART_Cmd) for USART_Cmd
    com.o(i.COM2Init) refers to stm32f10x_usart.o(i.USART_ITConfig) for USART_ITConfig
    com.o(i.COM2Init) refers to stm32f10x_gpio.o(i.GPIO_ResetBits) for GPIO_ResetBits
    com.o(i.COM3Init) refers to stm32f10x_rcc.o(i.RCC_APB1PeriphClockCmd) for RCC_APB1PeriphClockCmd
    com.o(i.COM3Init) refers to stm32f10x_usart.o(i.USART_Init) for USART_Init
    com.o(i.COM3Init) refers to stm32f10x_usart.o(i.USART_Cmd) for USART_Cmd
    com.o(i.COM3Init) refers to stm32f10x_usart.o(i.USART_ITConfig) for USART_ITConfig
    com.o(i.COM3Init) refers to stm32f10x_gpio.o(i.GPIO_ResetBits) for GPIO_ResetBits
    com.o(i.COM4Init) refers to stm32f10x_rcc.o(i.RCC_APB1PeriphClockCmd) for RCC_APB1PeriphClockCmd
    com.o(i.COM4Init) refers to stm32f10x_usart.o(i.USART_Init) for USART_Init
    com.o(i.COM4Init) refers to stm32f10x_usart.o(i.USART_Cmd) for USART_Cmd
    com.o(i.COM4Init) refers to stm32f10x_usart.o(i.USART_ITConfig) for USART_ITConfig
    com.o(i.Tx1Send) refers to stm32f10x_gpio.o(i.GPIO_SetBits) for GPIO_SetBits
    com.o(i.Tx1Send) refers to os_time.o(i.OSTimeDly) for OSTimeDly
    com.o(i.Tx1Send) refers to stm32f10x_usart.o(i.USART_ITConfig) for USART_ITConfig
    com.o(i.Tx1Send) refers to main.o(.data) for Tx1Cnt
    com.o(i.Tx2Send) refers to stm32f10x_gpio.o(i.GPIO_SetBits) for GPIO_SetBits
    com.o(i.Tx2Send) refers to os_time.o(i.OSTimeDly) for OSTimeDly
    com.o(i.Tx2Send) refers to stm32f10x_usart.o(i.USART_ITConfig) for USART_ITConfig
    com.o(i.Tx2Send) refers to main.o(.data) for Tx2Cnt
    com.o(i.Tx3Send) refers to stm32f10x_gpio.o(i.GPIO_SetBits) for GPIO_SetBits
    com.o(i.Tx3Send) refers to os_time.o(i.OSTimeDly) for OSTimeDly
    com.o(i.Tx3Send) refers to stm32f10x_usart.o(i.USART_ITConfig) for USART_ITConfig
    com.o(i.Tx3Send) refers to main.o(.data) for Tx3Cnt
    com.o(i.UART4_IRQHandler) refers to stm32f10x_usart.o(i.USART_GetITStatus) for USART_GetITStatus
    com.o(i.UART4_IRQHandler) refers to stm32f10x_usart.o(i.USART_ReceiveData) for USART_ReceiveData
    com.o(i.UART4_IRQHandler) refers to stm32f10x_usart.o(i.USART_ITConfig) for USART_ITConfig
    com.o(i.UART4_IRQHandler) refers to main.o(.data) for Rx4OverTime
    com.o(i.UART4_IRQHandler) refers to main.o(.bss) for Rx4Buf
    com.o(i.USART1_IRQHandler) refers to stm32f10x_usart.o(i.USART_GetITStatus) for USART_GetITStatus
    com.o(i.USART1_IRQHandler) refers to stm32f10x_usart.o(i.USART_ReceiveData) for USART_ReceiveData
    com.o(i.USART1_IRQHandler) refers to stm32f10x_usart.o(i.USART_ClearITPendingBit) for USART_ClearITPendingBit
    com.o(i.USART1_IRQHandler) refers to stm32f10x_usart.o(i.USART_SendData) for USART_SendData
    com.o(i.USART1_IRQHandler) refers to stm32f10x_usart.o(i.USART_ITConfig) for USART_ITConfig
    com.o(i.USART1_IRQHandler) refers to stm32f10x_gpio.o(i.GPIO_ResetBits) for GPIO_ResetBits
    com.o(i.USART1_IRQHandler) refers to main.o(.data) for Rx1OverTime
    com.o(i.USART1_IRQHandler) refers to main.o(.bss) for Rx1Buf
    com.o(i.USART2_IRQHandler) refers to stm32f10x_usart.o(i.USART_GetITStatus) for USART_GetITStatus
    com.o(i.USART2_IRQHandler) refers to stm32f10x_usart.o(i.USART_ReceiveData) for USART_ReceiveData
    com.o(i.USART2_IRQHandler) refers to stm32f10x_usart.o(i.USART_ClearITPendingBit) for USART_ClearITPendingBit
    com.o(i.USART2_IRQHandler) refers to stm32f10x_usart.o(i.USART_SendData) for USART_SendData
    com.o(i.USART2_IRQHandler) refers to stm32f10x_usart.o(i.USART_ITConfig) for USART_ITConfig
    com.o(i.USART2_IRQHandler) refers to stm32f10x_gpio.o(i.GPIO_ResetBits) for GPIO_ResetBits
    com.o(i.USART2_IRQHandler) refers to main.o(.data) for Rx2OverTime
    com.o(i.USART2_IRQHandler) refers to main.o(.bss) for Rx2Buf
    com.o(i.USART3_IRQHandler) refers to stm32f10x_usart.o(i.USART_GetITStatus) for USART_GetITStatus
    com.o(i.USART3_IRQHandler) refers to stm32f10x_usart.o(i.USART_ReceiveData) for USART_ReceiveData
    com.o(i.USART3_IRQHandler) refers to stm32f10x_usart.o(i.USART_ClearITPendingBit) for USART_ClearITPendingBit
    com.o(i.USART3_IRQHandler) refers to stm32f10x_usart.o(i.USART_SendData) for USART_SendData
    com.o(i.USART3_IRQHandler) refers to stm32f10x_usart.o(i.USART_ITConfig) for USART_ITConfig
    com.o(i.USART3_IRQHandler) refers to stm32f10x_gpio.o(i.GPIO_ResetBits) for GPIO_ResetBits
    com.o(i.USART3_IRQHandler) refers to main.o(.data) for Rx3OverTime
    com.o(i.USART3_IRQHandler) refers to main.o(.bss) for Rx3Buf
    relay.o(i.RelayTask) refers to stm32f10x_gpio.o(i.GPIO_ResetBits) for GPIO_ResetBits
    relay.o(i.RelayTask) refers to os_time.o(i.OSTimeDly) for OSTimeDly
    relay.o(i.RelayTask) refers to ffltui.o(.text) for __aeabi_ui2f
    relay.o(i.RelayTask) refers to fmul.o(.text) for __aeabi_fmul
    relay.o(i.RelayTask) refers to f2d.o(.text) for __aeabi_f2d
    relay.o(i.RelayTask) refers to dadd.o(.text) for __aeabi_dadd
    relay.o(i.RelayTask) refers to dfixui.o(.text) for __aeabi_d2uiz
    relay.o(i.RelayTask) refers to stm32f10x_gpio.o(i.GPIO_SetBits) for GPIO_SetBits
    relay.o(i.RelayTask) refers to main.o(.data) for UsRLVal
    ptu5x.o(i.CRCReplace) refers to crc.o(i.CalCRC16) for CalCRC16
    ptu5x.o(i.CRCReplace) refers to modbusprotocol.o(i.INT16ToCh) for INT16ToCh
    ptu5x.o(i.GetUstcDis2) refers to modbusprotocol.o(i.INT16ToCh) for INT16ToCh
    ptu5x.o(i.GetUstcDis2) refers to crc.o(i.CalCRC16) for CalCRC16
    ptu5x.o(i.GetUstcDis2) refers to com.o(i.Tx2Send) for Tx2Send
    ptu5x.o(i.GetUstcDis2) refers to flowmeterhandle.o(i.COM2_SendRecProcess) for COM2_SendRecProcess
    ptu5x.o(i.GetUstcDis2) refers to ptu5x.o(i.UstcWriteGolbal) for UstcWriteGolbal
    ptu5x.o(i.GetUstcDis2) refers to main.o(.data) for Tx2Num
    ptu5x.o(i.GetUstcDis2) refers to main.o(.bss) for Tx2Buf
    ptu5x.o(i.GetUstcToPC) refers to crc.o(i.CalCRC16) for CalCRC16
    ptu5x.o(i.GetUstcToPC) refers to modbusprotocol.o(i.ChToINT16) for ChToINT16
    ptu5x.o(i.GetUstcToPC) refers to ptu5x.o(i.UstcComMirror) for UstcComMirror
    ptu5x.o(i.GetUstcToPC) refers to ptu5x.o(i.UstcDateUpdate) for UstcDateUpdate
    ptu5x.o(i.GetUstcToPC) refers to modbusprotocol.o(i.MbRegRead) for MbRegRead
    ptu5x.o(i.GetUstcToPC) refers to modbusprotocol.o(i.Read_Ret) for Read_Ret
    ptu5x.o(i.GetUstcToPC) refers to ptu5x.o(.data) for Rx3Num_history
    ptu5x.o(i.GetUstcToPC) refers to main.o(.data) for Rx3Num
    ptu5x.o(i.GetUstcToPC) refers to main.o(.bss) for Rx3Buf
    ptu5x.o(i.UsDataSend) refers to modbusprotocol.o(i.INT16ToCh) for INT16ToCh
    ptu5x.o(i.UsDataSend) refers to crc.o(i.CalCRC16) for CalCRC16
    ptu5x.o(i.UsDataSend) refers to com.o(i.Tx2Send) for Tx2Send
    ptu5x.o(i.UsDataSend) refers to flowmeterhandle.o(i.COM2_SendRecProcess) for COM2_SendRecProcess
    ptu5x.o(i.UsDataSend) refers to main.o(.data) for Tx2Num
    ptu5x.o(i.UsDataSend) refers to main.o(.bss) for Tx2Buf
    ptu5x.o(i.UstcComMirror) refers to ptu5x.o(i.CRCReplace) for CRCReplace
    ptu5x.o(i.UstcComMirror) refers to com.o(i.Tx2Send) for Tx2Send
    ptu5x.o(i.UstcComMirror) refers to flowmeterhandle.o(i.COM2_SendRecProcess) for COM2_SendRecProcess
    ptu5x.o(i.UstcComMirror) refers to ptu5x.o(i.UstcWriteGolbal) for UstcWriteGolbal
    ptu5x.o(i.UstcComMirror) refers to com.o(i.Tx3Send) for Tx3Send
    ptu5x.o(i.UstcComMirror) refers to main.o(.bss) for Rx3Buf
    ptu5x.o(i.UstcComMirror) refers to main.o(.data) for Tx2Num
    ptu5x.o(i.UstcDateUpdate) refers to modbusprotocol.o(i.ChToINT16) for ChToINT16
    ptu5x.o(i.UstcDateUpdate) refers to memory.o(i.WriteCfg) for WriteCfg
    ptu5x.o(i.UstcDateUpdate) refers to ptu5x.o(i.UstcComMirror) for UstcComMirror
    ptu5x.o(i.UstcDateUpdate) refers to modbusprotocol.o(i.Write_Ret) for Write_Ret
    ptu5x.o(i.UstcDateUpdate) refers to main.o(.bss) for Cfg
    ptu5x.o(i.UstcDateUpdate) refers to main.o(.data) for WrCmd
    ptu5x.o(i.UstcWriteGolbal) refers to modbusprotocol.o(i.ChToINT16) for ChToINT16
    ptu5x.o(i.UstcWriteGolbal) refers to modbusprotocol.o(i.ChToFloat) for ChToFloat
    ptu5x.o(i.UstcWriteGolbal) refers to main.o(.data) for UsDistance
    stm32f10x_gpio.o(i.GPIO_AFIODeInit) refers to stm32f10x_rcc.o(i.RCC_APB2PeriphResetCmd) for RCC_APB2PeriphResetCmd
    stm32f10x_gpio.o(i.GPIO_DeInit) refers to stm32f10x_rcc.o(i.RCC_APB2PeriphResetCmd) for RCC_APB2PeriphResetCmd
    stm32f10x_rcc.o(i.RCC_GetClocksFreq) refers to stm32f10x_rcc.o(.data) for APBAHBPrescTable
    stm32f10x_rcc.o(i.RCC_WaitForHSEStartUp) refers to stm32f10x_rcc.o(i.RCC_GetFlagStatus) for RCC_GetFlagStatus
    stm32f10x_usart.o(i.USART_DeInit) refers to stm32f10x_rcc.o(i.RCC_APB2PeriphResetCmd) for RCC_APB2PeriphResetCmd
    stm32f10x_usart.o(i.USART_DeInit) refers to stm32f10x_rcc.o(i.RCC_APB1PeriphResetCmd) for RCC_APB1PeriphResetCmd
    stm32f10x_usart.o(i.USART_Init) refers to stm32f10x_rcc.o(i.RCC_GetClocksFreq) for RCC_GetClocksFreq
    stm32f10x_i2c.o(i.I2C_DeInit) refers to stm32f10x_rcc.o(i.RCC_APB1PeriphResetCmd) for RCC_APB1PeriphResetCmd
    stm32f10x_i2c.o(i.I2C_Init) refers to stm32f10x_rcc.o(i.RCC_GetClocksFreq) for RCC_GetClocksFreq
    stm32f10x_tim.o(i.TIM_DeInit) refers to stm32f10x_rcc.o(i.RCC_APB2PeriphResetCmd) for RCC_APB2PeriphResetCmd
    stm32f10x_tim.o(i.TIM_DeInit) refers to stm32f10x_rcc.o(i.RCC_APB1PeriphResetCmd) for RCC_APB1PeriphResetCmd
    stm32f10x_tim.o(i.TIM_ETRClockMode1Config) refers to stm32f10x_tim.o(i.TIM_ETRConfig) for TIM_ETRConfig
    stm32f10x_tim.o(i.TIM_ETRClockMode2Config) refers to stm32f10x_tim.o(i.TIM_ETRConfig) for TIM_ETRConfig
    stm32f10x_tim.o(i.TIM_ICInit) refers to stm32f10x_tim.o(i.TI1_Config) for TI1_Config
    stm32f10x_tim.o(i.TIM_ICInit) refers to stm32f10x_tim.o(i.TIM_SetIC1Prescaler) for TIM_SetIC1Prescaler
    stm32f10x_tim.o(i.TIM_ICInit) refers to stm32f10x_tim.o(i.TI2_Config) for TI2_Config
    stm32f10x_tim.o(i.TIM_ICInit) refers to stm32f10x_tim.o(i.TIM_SetIC2Prescaler) for TIM_SetIC2Prescaler
    stm32f10x_tim.o(i.TIM_ICInit) refers to stm32f10x_tim.o(i.TI3_Config) for TI3_Config
    stm32f10x_tim.o(i.TIM_ICInit) refers to stm32f10x_tim.o(i.TIM_SetIC3Prescaler) for TIM_SetIC3Prescaler
    stm32f10x_tim.o(i.TIM_ICInit) refers to stm32f10x_tim.o(i.TI4_Config) for TI4_Config
    stm32f10x_tim.o(i.TIM_ICInit) refers to stm32f10x_tim.o(i.TIM_SetIC4Prescaler) for TIM_SetIC4Prescaler
    stm32f10x_tim.o(i.TIM_ITRxExternalClockConfig) refers to stm32f10x_tim.o(i.TIM_SelectInputTrigger) for TIM_SelectInputTrigger
    stm32f10x_tim.o(i.TIM_PWMIConfig) refers to stm32f10x_tim.o(i.TI1_Config) for TI1_Config
    stm32f10x_tim.o(i.TIM_PWMIConfig) refers to stm32f10x_tim.o(i.TIM_SetIC1Prescaler) for TIM_SetIC1Prescaler
    stm32f10x_tim.o(i.TIM_PWMIConfig) refers to stm32f10x_tim.o(i.TI2_Config) for TI2_Config
    stm32f10x_tim.o(i.TIM_PWMIConfig) refers to stm32f10x_tim.o(i.TIM_SetIC2Prescaler) for TIM_SetIC2Prescaler
    stm32f10x_tim.o(i.TIM_TIxExternalClockConfig) refers to stm32f10x_tim.o(i.TI2_Config) for TI2_Config
    stm32f10x_tim.o(i.TIM_TIxExternalClockConfig) refers to stm32f10x_tim.o(i.TI1_Config) for TI1_Config
    stm32f10x_tim.o(i.TIM_TIxExternalClockConfig) refers to stm32f10x_tim.o(i.TIM_SelectInputTrigger) for TIM_SelectInputTrigger
    stm32f10x_adc.o(i.ADC_DeInit) refers to stm32f10x_rcc.o(i.RCC_APB2PeriphResetCmd) for RCC_APB2PeriphResetCmd
    stm32f10x_dac.o(i.DAC_DeInit) refers to stm32f10x_rcc.o(i.RCC_APB1PeriphResetCmd) for RCC_APB1PeriphResetCmd
    stm32f10x_spi.o(i.I2S_Init) refers to stm32f10x_rcc.o(i.RCC_GetClocksFreq) for RCC_GetClocksFreq
    stm32f10x_spi.o(i.SPI_I2S_DeInit) refers to stm32f10x_rcc.o(i.RCC_APB2PeriphResetCmd) for RCC_APB2PeriphResetCmd
    stm32f10x_spi.o(i.SPI_I2S_DeInit) refers to stm32f10x_rcc.o(i.RCC_APB1PeriphResetCmd) for RCC_APB1PeriphResetCmd
    system_stm32f10x.o(i.SetSysClock) refers to system_stm32f10x.o(i.SetSysClockTo24) for SetSysClockTo24
    system_stm32f10x.o(i.SystemCoreClockUpdate) refers to system_stm32f10x.o(.data) for SystemCoreClock
    system_stm32f10x.o(i.SystemInit) refers to system_stm32f10x.o(i.SetSysClock) for SetSysClock
    stm32f10x_it.o(i.SysTick_Handler) refers to os_core.o(i.OSIntEnter) for OSIntEnter
    stm32f10x_it.o(i.SysTick_Handler) refers to os_core.o(i.OSTimeTick) for OSTimeTick
    stm32f10x_it.o(i.SysTick_Handler) refers to os_core.o(i.OSIntExit) for OSIntExit
    startup_stm32f10x_hd.o(RESET) refers to startup_stm32f10x_hd.o(STACK) for __initial_sp
    startup_stm32f10x_hd.o(RESET) refers to startup_stm32f10x_hd.o(.text) for Reset_Handler
    startup_stm32f10x_hd.o(RESET) refers to stm32f10x_it.o(i.NMI_Handler) for NMI_Handler
    startup_stm32f10x_hd.o(RESET) refers to stm32f10x_it.o(i.HardFault_Handler) for HardFault_Handler
    startup_stm32f10x_hd.o(RESET) refers to stm32f10x_it.o(i.MemManage_Handler) for MemManage_Handler
    startup_stm32f10x_hd.o(RESET) refers to stm32f10x_it.o(i.BusFault_Handler) for BusFault_Handler
    startup_stm32f10x_hd.o(RESET) refers to stm32f10x_it.o(i.UsageFault_Handler) for UsageFault_Handler
    startup_stm32f10x_hd.o(RESET) refers to stm32f10x_it.o(i.SVC_Handler) for SVC_Handler
    startup_stm32f10x_hd.o(RESET) refers to stm32f10x_it.o(i.DebugMon_Handler) for DebugMon_Handler
    startup_stm32f10x_hd.o(RESET) refers to os_cpu_a.o(.text) for OS_CPU_PendSVHandler
    startup_stm32f10x_hd.o(RESET) refers to stm32f10x_it.o(i.SysTick_Handler) for SysTick_Handler
    startup_stm32f10x_hd.o(RESET) refers to timer.o(i.TIM4_IRQHandler) for TIM4_IRQHandler
    startup_stm32f10x_hd.o(RESET) refers to com.o(i.USART1_IRQHandler) for USART1_IRQHandler
    startup_stm32f10x_hd.o(RESET) refers to com.o(i.USART2_IRQHandler) for USART2_IRQHandler
    startup_stm32f10x_hd.o(RESET) refers to com.o(i.USART3_IRQHandler) for USART3_IRQHandler
    startup_stm32f10x_hd.o(RESET) refers to com.o(i.UART4_IRQHandler) for UART4_IRQHandler
    startup_stm32f10x_hd.o(.text) refers to system_stm32f10x.o(i.SystemInit) for SystemInit
    startup_stm32f10x_hd.o(.text) refers to entry.o(.ARM.Collect$$$$00000000) for __main
    cpu_c.o(i.CPU_IntSrcDis) refers to cpu_a.o(.text) for CPU_SR_Save
    cpu_c.o(i.CPU_IntSrcEn) refers to cpu_a.o(.text) for CPU_SR_Save
    cpu_c.o(i.CPU_IntSrcPrioGet) refers to cpu_a.o(.text) for CPU_SR_Save
    cpu_c.o(i.CPU_IntSrcPrioSet) refers to cpu_a.o(.text) for CPU_RevBits
    lib_mem.o(i.Mem_Clr) refers to lib_mem.o(i.Mem_Set) for Mem_Set
    lib_str.o(i.Str_Cat) refers to lib_str.o(i.Str_Cat_N) for Str_Cat_N
    lib_str.o(i.Str_Char) refers to lib_str.o(i.Str_Char_N) for Str_Char_N
    lib_str.o(i.Str_Char_Last) refers to lib_str.o(i.Str_Len) for Str_Len
    lib_str.o(i.Str_Cmp) refers to lib_str.o(i.Str_Cmp_N) for Str_Cmp_N
    lib_str.o(i.Str_CmpIgnoreCase) refers to lib_str.o(i.Str_CmpIgnoreCase_N) for Str_CmpIgnoreCase_N
    lib_str.o(i.Str_Copy) refers to lib_str.o(i.Str_Copy_N) for Str_Copy_N
    lib_str.o(i.Str_FmtNbr_Int32) refers to lib_str.o(.constdata) for Str_MultOvfThTbl_Int32U
    lib_str.o(i.Str_FmtNbr_Int32S) refers to lib_str.o(i.Str_FmtNbr_Int32) for Str_FmtNbr_Int32
    lib_str.o(i.Str_FmtNbr_Int32U) refers to lib_str.o(i.Str_FmtNbr_Int32) for Str_FmtNbr_Int32
    lib_str.o(i.Str_ParseNbr_Int32) refers to lib_str.o(.constdata) for Str_MultOvfThTbl_Int32U
    lib_str.o(i.Str_ParseNbr_Int32S) refers to lib_str.o(i.Str_ParseNbr_Int32) for Str_ParseNbr_Int32
    lib_str.o(i.Str_ParseNbr_Int32U) refers to lib_str.o(i.Str_ParseNbr_Int32) for Str_ParseNbr_Int32
    lib_str.o(i.Str_Str) refers to lib_str.o(i.Str_Len) for Str_Len
    lib_str.o(i.Str_Str) refers to lib_str.o(i.Str_Cmp_N) for Str_Cmp_N
    os_cpu_a.o(.text) refers to os_core.o(.data) for OSRunning
    os_cpu_a.o(.text) refers to os_cpu_c.o(i.OSTaskSwHook) for OSTaskSwHook
    os_core.o(i.OSInit) refers to os_cpu_c.o(i.OSInitHookBegin) for OSInitHookBegin
    os_core.o(i.OSInit) refers to os_core.o(i.OS_InitMisc) for OS_InitMisc
    os_core.o(i.OSInit) refers to os_core.o(i.OS_InitRdyList) for OS_InitRdyList
    os_core.o(i.OSInit) refers to os_core.o(i.OS_InitTCBList) for OS_InitTCBList
    os_core.o(i.OSInit) refers to os_core.o(i.OS_InitEventList) for OS_InitEventList
    os_core.o(i.OSInit) refers to os_core.o(i.OS_InitTaskIdle) for OS_InitTaskIdle
    os_core.o(i.OSInit) refers to os_core.o(i.OS_InitTaskStat) for OS_InitTaskStat
    os_core.o(i.OSInit) refers to os_cpu_c.o(i.OSInitHookEnd) for OSInitHookEnd
    os_core.o(i.OSIntEnter) refers to os_core.o(.data) for OSRunning
    os_core.o(i.OSIntExit) refers to os_cpu_a.o(.text) for OS_CPU_SR_Save
    os_core.o(i.OSIntExit) refers to os_core.o(i.OS_SchedNew) for OS_SchedNew
    os_core.o(i.OSIntExit) refers to os_core.o(.data) for OSRunning
    os_core.o(i.OSIntExit) refers to os_core.o(.bss) for OSTCBPrioTbl
    os_core.o(i.OSSchedLock) refers to os_cpu_a.o(.text) for OS_CPU_SR_Save
    os_core.o(i.OSSchedLock) refers to os_core.o(.data) for OSRunning
    os_core.o(i.OSSchedUnlock) refers to os_cpu_a.o(.text) for OS_CPU_SR_Save
    os_core.o(i.OSSchedUnlock) refers to os_core.o(i.OS_Sched) for OS_Sched
    os_core.o(i.OSSchedUnlock) refers to os_core.o(.data) for OSRunning
    os_core.o(i.OSStart) refers to os_core.o(i.OS_SchedNew) for OS_SchedNew
    os_core.o(i.OSStart) refers to os_cpu_a.o(.text) for OSStartHighRdy
    os_core.o(i.OSStart) refers to os_core.o(.data) for OSRunning
    os_core.o(i.OSStart) refers to os_core.o(.bss) for OSTCBPrioTbl
    os_core.o(i.OSStatInit) refers to os_time.o(i.OSTimeDly) for OSTimeDly
    os_core.o(i.OSStatInit) refers to os_cpu_a.o(.text) for OS_CPU_SR_Save
    os_core.o(i.OSStatInit) refers to os_core.o(.data) for OSIdleCtr
    os_core.o(i.OSTimeTick) refers to os_cpu_c.o(i.OSTimeTickHook) for OSTimeTickHook
    os_core.o(i.OSTimeTick) refers to os_cpu_a.o(.text) for OS_CPU_SR_Save
    os_core.o(i.OSTimeTick) refers to os_core.o(.data) for OSTime
    os_core.o(i.OS_InitMisc) refers to os_core.o(.data) for OSTime
    os_core.o(i.OS_InitRdyList) refers to os_core.o(.data) for OSRdyGrp
    os_core.o(i.OS_InitTCBList) refers to os_core.o(i.OS_MemClr) for OS_MemClr
    os_core.o(i.OS_InitTCBList) refers to os_core.o(.bss) for OSTCBTbl
    os_core.o(i.OS_InitTCBList) refers to os_core.o(.data) for OSTCBList
    os_core.o(i.OS_InitTaskIdle) refers to os_task.o(i.OSTaskCreateExt) for OSTaskCreateExt
    os_core.o(i.OS_InitTaskIdle) refers to os_task.o(i.OSTaskNameSet) for OSTaskNameSet
    os_core.o(i.OS_InitTaskIdle) refers to os_core.o(.bss) for OSTaskIdleStk
    os_core.o(i.OS_InitTaskIdle) refers to os_core.o(i.OS_TaskIdle) for OS_TaskIdle
    os_core.o(i.OS_InitTaskStat) refers to os_task.o(i.OSTaskCreateExt) for OSTaskCreateExt
    os_core.o(i.OS_InitTaskStat) refers to os_task.o(i.OSTaskNameSet) for OSTaskNameSet
    os_core.o(i.OS_InitTaskStat) refers to os_core.o(.bss) for OSTaskStatStk
    os_core.o(i.OS_InitTaskStat) refers to os_core.o(i.OS_TaskStat) for OS_TaskStat
    os_core.o(i.OS_Sched) refers to os_cpu_a.o(.text) for OS_CPU_SR_Save
    os_core.o(i.OS_Sched) refers to os_core.o(i.OS_SchedNew) for OS_SchedNew
    os_core.o(i.OS_Sched) refers to os_core.o(.data) for OSIntNesting
    os_core.o(i.OS_Sched) refers to os_core.o(.bss) for OSTCBPrioTbl
    os_core.o(i.OS_SchedNew) refers to os_core.o(.constdata) for OSUnMapTbl
    os_core.o(i.OS_SchedNew) refers to os_core.o(.data) for OSRdyGrp
    os_core.o(i.OS_TCBInit) refers to os_cpu_a.o(.text) for OS_CPU_SR_Save
    os_core.o(i.OS_TCBInit) refers to os_cpu_c.o(i.OSTCBInitHook) for OSTCBInitHook
    os_core.o(i.OS_TCBInit) refers to os_cpu_c.o(i.OSTaskCreateHook) for OSTaskCreateHook
    os_core.o(i.OS_TCBInit) refers to os_core.o(.data) for OSTCBFreeList
    os_core.o(i.OS_TCBInit) refers to os_core.o(.bss) for OSTCBPrioTbl
    os_core.o(i.OS_TaskIdle) refers to os_cpu_a.o(.text) for OS_CPU_SR_Save
    os_core.o(i.OS_TaskIdle) refers to os_cpu_c.o(i.OSTaskIdleHook) for OSTaskIdleHook
    os_core.o(i.OS_TaskIdle) refers to os_core.o(.data) for OSIdleCtr
    os_core.o(i.OS_TaskStat) refers to os_time.o(i.OSTimeDly) for OSTimeDly
    os_core.o(i.OS_TaskStat) refers to os_task.o(i.OSTaskSuspend) for OSTaskSuspend
    os_core.o(i.OS_TaskStat) refers to os_cpu_a.o(.text) for OS_CPU_SR_Save
    os_core.o(i.OS_TaskStat) refers to os_cpu_c.o(i.OSTaskStatHook) for OSTaskStatHook
    os_core.o(i.OS_TaskStat) refers to os_core.o(i.OS_TaskStatStkChk) for OS_TaskStatStkChk
    os_core.o(i.OS_TaskStat) refers to os_core.o(.data) for OSStatRdy
    os_core.o(i.OS_TaskStatStkChk) refers to os_task.o(i.OSTaskStkChk) for OSTaskStkChk
    os_core.o(i.OS_TaskStatStkChk) refers to os_core.o(.bss) for OSTCBPrioTbl
    os_task.o(i.OSTaskChangePrio) refers to os_cpu_a.o(.text) for OS_CPU_SR_Save
    os_task.o(i.OSTaskChangePrio) refers to os_core.o(i.OS_Sched) for OS_Sched
    os_task.o(i.OSTaskChangePrio) refers to os_core.o(.bss) for OSTCBPrioTbl
    os_task.o(i.OSTaskChangePrio) refers to os_core.o(.data) for OSTCBCur
    os_task.o(i.OSTaskCreate) refers to os_cpu_a.o(.text) for OS_CPU_SR_Save
    os_task.o(i.OSTaskCreate) refers to os_cpu_c.o(i.OSTaskStkInit) for OSTaskStkInit
    os_task.o(i.OSTaskCreate) refers to os_core.o(i.OS_TCBInit) for OS_TCBInit
    os_task.o(i.OSTaskCreate) refers to os_core.o(i.OS_Sched) for OS_Sched
    os_task.o(i.OSTaskCreate) refers to os_core.o(.data) for OSIntNesting
    os_task.o(i.OSTaskCreate) refers to os_core.o(.bss) for OSTCBPrioTbl
    os_task.o(i.OSTaskCreateExt) refers to os_cpu_a.o(.text) for OS_CPU_SR_Save
    os_task.o(i.OSTaskCreateExt) refers to os_task.o(i.OS_TaskStkClr) for OS_TaskStkClr
    os_task.o(i.OSTaskCreateExt) refers to os_cpu_c.o(i.OSTaskStkInit) for OSTaskStkInit
    os_task.o(i.OSTaskCreateExt) refers to os_core.o(i.OS_TCBInit) for OS_TCBInit
    os_task.o(i.OSTaskCreateExt) refers to os_core.o(i.OS_Sched) for OS_Sched
    os_task.o(i.OSTaskCreateExt) refers to os_core.o(.data) for OSIntNesting
    os_task.o(i.OSTaskCreateExt) refers to os_core.o(.bss) for OSTCBPrioTbl
    os_task.o(i.OSTaskDel) refers to os_cpu_a.o(.text) for OS_CPU_SR_Save
    os_task.o(i.OSTaskDel) refers to os_core.o(i.OS_Dummy) for OS_Dummy
    os_task.o(i.OSTaskDel) refers to os_cpu_c.o(i.OSTaskDelHook) for OSTaskDelHook
    os_task.o(i.OSTaskDel) refers to os_core.o(i.OS_Sched) for OS_Sched
    os_task.o(i.OSTaskDel) refers to os_core.o(.data) for OSIntNesting
    os_task.o(i.OSTaskDel) refers to os_core.o(.bss) for OSTCBPrioTbl
    os_task.o(i.OSTaskDelReq) refers to os_cpu_a.o(.text) for OS_CPU_SR_Save
    os_task.o(i.OSTaskDelReq) refers to os_core.o(.data) for OSTCBCur
    os_task.o(i.OSTaskDelReq) refers to os_core.o(.bss) for OSTCBPrioTbl
    os_task.o(i.OSTaskNameGet) refers to os_cpu_a.o(.text) for OS_CPU_SR_Save
    os_task.o(i.OSTaskNameGet) refers to os_core.o(i.OS_StrCopy) for OS_StrCopy
    os_task.o(i.OSTaskNameGet) refers to os_core.o(.data) for OSIntNesting
    os_task.o(i.OSTaskNameGet) refers to os_core.o(.bss) for OSTCBPrioTbl
    os_task.o(i.OSTaskNameSet) refers to os_cpu_a.o(.text) for OS_CPU_SR_Save
    os_task.o(i.OSTaskNameSet) refers to os_core.o(i.OS_StrLen) for OS_StrLen
    os_task.o(i.OSTaskNameSet) refers to os_core.o(i.OS_StrCopy) for OS_StrCopy
    os_task.o(i.OSTaskNameSet) refers to os_core.o(.data) for OSIntNesting
    os_task.o(i.OSTaskNameSet) refers to os_core.o(.bss) for OSTCBPrioTbl
    os_task.o(i.OSTaskQuery) refers to os_cpu_a.o(.text) for OS_CPU_SR_Save
    os_task.o(i.OSTaskQuery) refers to os_core.o(i.OS_MemCopy) for OS_MemCopy
    os_task.o(i.OSTaskQuery) refers to os_core.o(.data) for OSTCBCur
    os_task.o(i.OSTaskQuery) refers to os_core.o(.bss) for OSTCBPrioTbl
    os_task.o(i.OSTaskResume) refers to os_cpu_a.o(.text) for OS_CPU_SR_Save
    os_task.o(i.OSTaskResume) refers to os_core.o(i.OS_Sched) for OS_Sched
    os_task.o(i.OSTaskResume) refers to os_core.o(.bss) for OSTCBPrioTbl
    os_task.o(i.OSTaskResume) refers to os_core.o(.data) for OSRdyGrp
    os_task.o(i.OSTaskStkChk) refers to os_cpu_a.o(.text) for OS_CPU_SR_Save
    os_task.o(i.OSTaskStkChk) refers to os_core.o(.data) for OSTCBCur
    os_task.o(i.OSTaskStkChk) refers to os_core.o(.bss) for OSTCBPrioTbl
    os_task.o(i.OSTaskSuspend) refers to os_cpu_a.o(.text) for OS_CPU_SR_Save
    os_task.o(i.OSTaskSuspend) refers to os_core.o(i.OS_Sched) for OS_Sched
    os_task.o(i.OSTaskSuspend) refers to os_core.o(.data) for OSTCBCur
    os_task.o(i.OSTaskSuspend) refers to os_core.o(.bss) for OSTCBPrioTbl
    os_time.o(i.OSTimeDly) refers to os_cpu_a.o(.text) for OS_CPU_SR_Save
    os_time.o(i.OSTimeDly) refers to os_core.o(i.OS_Sched) for OS_Sched
    os_time.o(i.OSTimeDly) refers to os_core.o(.data) for OSIntNesting
    os_time.o(i.OSTimeDlyHMSM) refers to os_time.o(i.OSTimeDly) for OSTimeDly
    os_time.o(i.OSTimeDlyHMSM) refers to os_core.o(.data) for OSIntNesting
    os_time.o(i.OSTimeDlyResume) refers to os_cpu_a.o(.text) for OS_CPU_SR_Save
    os_time.o(i.OSTimeDlyResume) refers to os_core.o(i.OS_Sched) for OS_Sched
    os_time.o(i.OSTimeDlyResume) refers to os_core.o(.bss) for OSTCBPrioTbl
    os_time.o(i.OSTimeDlyResume) refers to os_core.o(.data) for OSRdyGrp
    os_time.o(i.OSTimeGet) refers to os_cpu_a.o(.text) for OS_CPU_SR_Save
    os_time.o(i.OSTimeGet) refers to os_core.o(.data) for OSTime
    os_time.o(i.OSTimeSet) refers to os_cpu_a.o(.text) for OS_CPU_SR_Save
    os_time.o(i.OSTimeSet) refers to os_core.o(.data) for OSTime
    spi_msd0_driver.o(i.MSD0_GetCardInfo) refers to spi_msd0_driver.o(i.MSD0_send_command) for MSD0_send_command
    spi_msd0_driver.o(i.MSD0_GetCardInfo) refers to spi_msd0_driver.o(i.MSD0_read_buffer) for MSD0_read_buffer
    spi_msd0_driver.o(i.MSD0_Init) refers to spi_msd0_driver.o(i.MSD0_spi_read_write) for MSD0_spi_read_write
    spi_msd0_driver.o(i.MSD0_Init) refers to spi_msd0_driver.o(i.MSD0_send_command) for MSD0_send_command
    spi_msd0_driver.o(i.MSD0_Init) refers to spi_msd0_driver.o(i.MSD0_send_command_hold) for MSD0_send_command_hold
    spi_msd0_driver.o(i.MSD0_Init) refers to spi_msd0_driver.o(i.MSD0_SPIHighSpeed) for MSD0_SPIHighSpeed
    spi_msd0_driver.o(i.MSD0_Init) refers to spi_msd0_driver.o(.bss) for SD0_CardInfo
    spi_msd0_driver.o(i.MSD0_ReadMultiBlock) refers to spi_msd0_driver.o(i.MSD0_send_command) for MSD0_send_command
    spi_msd0_driver.o(i.MSD0_ReadMultiBlock) refers to spi_msd0_driver.o(i.MSD0_read_buffer) for MSD0_read_buffer
    spi_msd0_driver.o(i.MSD0_ReadMultiBlock) refers to spi_msd0_driver.o(i.MSD0_spi_read_write) for MSD0_spi_read_write
    spi_msd0_driver.o(i.MSD0_ReadMultiBlock) refers to spi_msd0_driver.o(.bss) for SD0_CardInfo
    spi_msd0_driver.o(i.MSD0_ReadSingleBlock) refers to spi_msd0_driver.o(i.MSD0_send_command) for MSD0_send_command
    spi_msd0_driver.o(i.MSD0_ReadSingleBlock) refers to spi_msd0_driver.o(i.MSD0_read_buffer) for MSD0_read_buffer
    spi_msd0_driver.o(i.MSD0_ReadSingleBlock) refers to spi_msd0_driver.o(.bss) for SD0_CardInfo
    spi_msd0_driver.o(i.MSD0_SPIHighSpeed) refers to stm32f10x_spi.o(i.SPI_Init) for SPI_Init
    spi_msd0_driver.o(i.MSD0_SPI_Configuration) refers to stm32f10x_rcc.o(i.RCC_APB2PeriphClockCmd) for RCC_APB2PeriphClockCmd
    spi_msd0_driver.o(i.MSD0_SPI_Configuration) refers to stm32f10x_gpio.o(i.GPIO_Init) for GPIO_Init
    spi_msd0_driver.o(i.MSD0_SPI_Configuration) refers to spi_msd0_driver.o(i.MSD0_SPIHighSpeed) for MSD0_SPIHighSpeed
    spi_msd0_driver.o(i.MSD0_SPI_Configuration) refers to stm32f10x_spi.o(i.SPI_Cmd) for SPI_Cmd
    spi_msd0_driver.o(i.MSD0_WriteMultiBlock) refers to spi_msd0_driver.o(i.MSD0_send_command) for MSD0_send_command
    spi_msd0_driver.o(i.MSD0_WriteMultiBlock) refers to spi_msd0_driver.o(i.MSD0_spi_read_write) for MSD0_spi_read_write
    spi_msd0_driver.o(i.MSD0_WriteMultiBlock) refers to spi_msd0_driver.o(.bss) for SD0_CardInfo
    spi_msd0_driver.o(i.MSD0_WriteSingleBlock) refers to spi_msd0_driver.o(i.MSD0_send_command) for MSD0_send_command
    spi_msd0_driver.o(i.MSD0_WriteSingleBlock) refers to spi_msd0_driver.o(i.MSD0_spi_read_write) for MSD0_spi_read_write
    spi_msd0_driver.o(i.MSD0_WriteSingleBlock) refers to spi_msd0_driver.o(.bss) for SD0_CardInfo
    spi_msd0_driver.o(i.MSD0_read_buffer) refers to spi_msd0_driver.o(i.MSD0_spi_read_write) for MSD0_spi_read_write
    spi_msd0_driver.o(i.MSD0_send_command) refers to spi_msd0_driver.o(i.MSD0_spi_read_write) for MSD0_spi_read_write
    spi_msd0_driver.o(i.MSD0_send_command_hold) refers to spi_msd0_driver.o(i.MSD0_spi_read_write) for MSD0_spi_read_write
    fatfs.o(i.SD_Mem) refers to spi_msd0_driver.o(i.MSD0_SPI_Configuration) for MSD0_SPI_Configuration
    fatfs.o(i.SD_Mem) refers to fatfs.o(i.SD_Wr) for SD_Wr
    fatfs.o(i.SD_Mem) refers to stm32f10x_gpio.o(i.GPIO_ResetBits) for GPIO_ResetBits
    fatfs.o(i.SD_Mem) refers to os_time.o(i.OSTimeDly) for OSTimeDly
    fatfs.o(i.SD_Mem) refers to fatfs.o(.data) for SD_WrEn
    fatfs.o(i.SD_TotalSize) refers to ff.o(i.f_getfree) for f_getfree
    fatfs.o(i.SD_TotalSize) refers to printf3.o(i.__0printf$3) for __2printf
    fatfs.o(i.SD_TotalSize) refers to fatfs.o(.data) for res
    fatfs.o(i.SD_Wr) refers to ff.o(i.f_mount) for f_mount
    fatfs.o(i.SD_Wr) refers to printf3.o(i.__0printf$3) for __2printf
    fatfs.o(i.SD_Wr) refers to ff.o(i.f_open) for f_open
    fatfs.o(i.SD_Wr) refers to ff.o(i.f_write) for f_write
    fatfs.o(i.SD_Wr) refers to ff.o(i.f_close) for f_close
    fatfs.o(i.SD_Wr) refers to ff.o(i.f_read) for f_read
    fatfs.o(i.SD_Wr) refers to fatfs.o(i.scan_files) for scan_files
    fatfs.o(i.SD_Wr) refers to fatfs.o(i.SD_TotalSize) for SD_TotalSize
    fatfs.o(i.SD_Wr) refers to fatfs.o(.bss) for fs
    fatfs.o(i.SD_Wr) refers to fatfs.o(.data) for res
    fatfs.o(i.fputc) refers to stm32f10x_gpio.o(i.GPIO_SetBits) for GPIO_SetBits
    fatfs.o(i.fputc) refers to stm32f10x_usart.o(i.USART_SendData) for USART_SendData
    fatfs.o(i.fputc) refers to stm32f10x_usart.o(i.USART_GetFlagStatus) for USART_GetFlagStatus
    fatfs.o(i.scan_files) refers to ff.o(i.f_opendir) for f_opendir
    fatfs.o(i.scan_files) refers to strlen.o(.text) for strlen
    fatfs.o(i.scan_files) refers to ff.o(i.f_readdir) for f_readdir
    fatfs.o(i.scan_files) refers to printf3.o(i.__0sprintf$3) for __2sprintf
    fatfs.o(i.scan_files) refers to printf3.o(i.__0printf$3) for __2printf
    fatfs.o(i.scan_files) refers to fatfs.o(.bss) for lfn
    diskio.o(i.disk_initialize) refers to spi_msd0_driver.o(i.MSD0_Init) for MSD0_Init
    diskio.o(i.disk_ioctl) refers to spi_msd0_driver.o(i.MSD0_GetCardInfo) for MSD0_GetCardInfo
    diskio.o(i.disk_ioctl) refers to spi_msd0_driver.o(.bss) for SD0_CardInfo
    diskio.o(i.disk_read) refers to spi_msd0_driver.o(i.MSD0_ReadSingleBlock) for MSD0_ReadSingleBlock
    diskio.o(i.disk_read) refers to spi_msd0_driver.o(i.MSD0_ReadMultiBlock) for MSD0_ReadMultiBlock
    diskio.o(i.disk_write) refers to spi_msd0_driver.o(i.MSD0_WriteSingleBlock) for MSD0_WriteSingleBlock
    diskio.o(i.disk_write) refers to spi_msd0_driver.o(i.MSD0_WriteMultiBlock) for MSD0_WriteMultiBlock
    diskio.o(i.get_fattime) refers to main.o(.data) for Time
    ff.o(i.check_fs) refers to diskio.o(i.disk_read) for disk_read
    ff.o(i.chk_mounted) refers to diskio.o(i.disk_status) for disk_status
    ff.o(i.chk_mounted) refers to diskio.o(i.disk_initialize) for disk_initialize
    ff.o(i.chk_mounted) refers to ff.o(i.check_fs) for check_fs
    ff.o(i.chk_mounted) refers to diskio.o(i.disk_read) for disk_read
    ff.o(i.chk_mounted) refers to ff.o(.data) for FatFs
    ff.o(i.cmp_lfn) refers to ccsbcs.o(i.ff_wtoupper) for ff_wtoupper
    ff.o(i.cmp_lfn) refers to ff.o(.constdata) for LfnOfs
    ff.o(i.create_chain) refers to ff.o(i.get_fat) for get_fat
    ff.o(i.create_chain) refers to ff.o(i.put_fat) for put_fat
    ff.o(i.create_name) refers to ccsbcs.o(i.ff_convert) for ff_convert
    ff.o(i.create_name) refers to ff.o(i.chk_chr) for chk_chr
    ff.o(i.create_name) refers to ff.o(i.mem_set) for mem_set
    ff.o(i.create_name) refers to ff.o(.constdata) for excvt
    ff.o(i.dir_find) refers to ff.o(i.dir_sdi) for dir_sdi
    ff.o(i.dir_find) refers to ff.o(i.move_window) for move_window
    ff.o(i.dir_find) refers to ff.o(i.cmp_lfn) for cmp_lfn
    ff.o(i.dir_find) refers to ff.o(i.sum_sfn) for sum_sfn
    ff.o(i.dir_find) refers to ff.o(i.mem_cmp) for mem_cmp
    ff.o(i.dir_find) refers to ff.o(i.dir_next) for dir_next
    ff.o(i.dir_next) refers to ff.o(i.get_fat) for get_fat
    ff.o(i.dir_next) refers to ff.o(i.create_chain) for create_chain
    ff.o(i.dir_next) refers to ff.o(i.move_window) for move_window
    ff.o(i.dir_next) refers to ff.o(i.mem_set) for mem_set
    ff.o(i.dir_next) refers to ff.o(i.clust2sect) for clust2sect
    ff.o(i.dir_read) refers to ff.o(i.move_window) for move_window
    ff.o(i.dir_read) refers to ff.o(i.pick_lfn) for pick_lfn
    ff.o(i.dir_read) refers to ff.o(i.sum_sfn) for sum_sfn
    ff.o(i.dir_read) refers to ff.o(i.dir_next) for dir_next
    ff.o(i.dir_register) refers to ff.o(i.mem_cpy) for mem_cpy
    ff.o(i.dir_register) refers to ff.o(i.gen_numname) for gen_numname
    ff.o(i.dir_register) refers to ff.o(i.dir_find) for dir_find
    ff.o(i.dir_register) refers to ff.o(i.dir_sdi) for dir_sdi
    ff.o(i.dir_register) refers to ff.o(i.move_window) for move_window
    ff.o(i.dir_register) refers to ff.o(i.dir_next) for dir_next
    ff.o(i.dir_register) refers to ff.o(i.sum_sfn) for sum_sfn
    ff.o(i.dir_register) refers to ff.o(i.fit_lfn) for fit_lfn
    ff.o(i.dir_register) refers to ff.o(i.mem_set) for mem_set
    ff.o(i.dir_remove) refers to ff.o(i.dir_sdi) for dir_sdi
    ff.o(i.dir_remove) refers to ff.o(i.move_window) for move_window
    ff.o(i.dir_remove) refers to ff.o(i.dir_next) for dir_next
    ff.o(i.dir_sdi) refers to ff.o(i.get_fat) for get_fat
    ff.o(i.dir_sdi) refers to ff.o(i.clust2sect) for clust2sect
    ff.o(i.f_chmod) refers to ff.o(i.chk_mounted) for chk_mounted
    ff.o(i.f_chmod) refers to ff.o(i.follow_path) for follow_path
    ff.o(i.f_chmod) refers to ff.o(i.sync) for sync
    ff.o(i.f_chmod) refers to ff.o(.bss) for LfnBuf
    ff.o(i.f_close) refers to ff.o(i.f_sync) for f_sync
    ff.o(i.f_getfree) refers to ff.o(i.chk_mounted) for chk_mounted
    ff.o(i.f_getfree) refers to ff.o(i.get_fat) for get_fat
    ff.o(i.f_getfree) refers to ff.o(i.move_window) for move_window
    ff.o(i.f_lseek) refers to ff.o(i.validate) for validate
    ff.o(i.f_lseek) refers to ff.o(i.create_chain) for create_chain
    ff.o(i.f_lseek) refers to ff.o(i.get_fat) for get_fat
    ff.o(i.f_lseek) refers to ff.o(i.clust2sect) for clust2sect
    ff.o(i.f_lseek) refers to diskio.o(i.disk_write) for disk_write
    ff.o(i.f_lseek) refers to diskio.o(i.disk_read) for disk_read
    ff.o(i.f_mkdir) refers to diskio.o(i.get_fattime) for get_fattime
    ff.o(i.f_mkdir) refers to ff.o(i.chk_mounted) for chk_mounted
    ff.o(i.f_mkdir) refers to ff.o(i.follow_path) for follow_path
    ff.o(i.f_mkdir) refers to ff.o(i.create_chain) for create_chain
    ff.o(i.f_mkdir) refers to ff.o(i.move_window) for move_window
    ff.o(i.f_mkdir) refers to ff.o(i.clust2sect) for clust2sect
    ff.o(i.f_mkdir) refers to ff.o(i.mem_set) for mem_set
    ff.o(i.f_mkdir) refers to ff.o(i.mem_cpy) for mem_cpy
    ff.o(i.f_mkdir) refers to ff.o(i.dir_register) for dir_register
    ff.o(i.f_mkdir) refers to ff.o(i.remove_chain) for remove_chain
    ff.o(i.f_mkdir) refers to ff.o(i.sync) for sync
    ff.o(i.f_mkdir) refers to ff.o(.bss) for LfnBuf
    ff.o(i.f_mount) refers to ff.o(.data) for FatFs
    ff.o(i.f_open) refers to ff.o(i.chk_mounted) for chk_mounted
    ff.o(i.f_open) refers to ff.o(i.follow_path) for follow_path
    ff.o(i.f_open) refers to ff.o(i.dir_register) for dir_register
    ff.o(i.f_open) refers to diskio.o(i.get_fattime) for get_fattime
    ff.o(i.f_open) refers to ff.o(i.remove_chain) for remove_chain
    ff.o(i.f_open) refers to ff.o(i.move_window) for move_window
    ff.o(i.f_open) refers to ff.o(.bss) for LfnBuf
    ff.o(i.f_opendir) refers to ff.o(i.chk_mounted) for chk_mounted
    ff.o(i.f_opendir) refers to ff.o(i.follow_path) for follow_path
    ff.o(i.f_opendir) refers to ff.o(i.dir_sdi) for dir_sdi
    ff.o(i.f_opendir) refers to ff.o(.bss) for LfnBuf
    ff.o(i.f_read) refers to ff.o(i.validate) for validate
    ff.o(i.f_read) refers to ff.o(i.get_fat) for get_fat
    ff.o(i.f_read) refers to ff.o(i.clust2sect) for clust2sect
    ff.o(i.f_read) refers to diskio.o(i.disk_read) for disk_read
    ff.o(i.f_read) refers to ff.o(i.mem_cpy) for mem_cpy
    ff.o(i.f_read) refers to diskio.o(i.disk_write) for disk_write
    ff.o(i.f_readdir) refers to ff.o(i.validate) for validate
    ff.o(i.f_readdir) refers to ff.o(i.dir_sdi) for dir_sdi
    ff.o(i.f_readdir) refers to ff.o(i.dir_read) for dir_read
    ff.o(i.f_readdir) refers to ff.o(i.get_fileinfo) for get_fileinfo
    ff.o(i.f_readdir) refers to ff.o(i.dir_next) for dir_next
    ff.o(i.f_readdir) refers to ff.o(.bss) for LfnBuf
    ff.o(i.f_rename) refers to ff.o(i.chk_mounted) for chk_mounted
    ff.o(i.f_rename) refers to ff.o(i.follow_path) for follow_path
    ff.o(i.f_rename) refers to ff.o(i.mem_cpy) for mem_cpy
    ff.o(i.f_rename) refers to ff.o(i.dir_register) for dir_register
    ff.o(i.f_rename) refers to ff.o(i.clust2sect) for clust2sect
    ff.o(i.f_rename) refers to ff.o(i.move_window) for move_window
    ff.o(i.f_rename) refers to ff.o(i.dir_remove) for dir_remove
    ff.o(i.f_rename) refers to ff.o(i.sync) for sync
    ff.o(i.f_rename) refers to ff.o(.bss) for LfnBuf
    ff.o(i.f_stat) refers to ff.o(i.chk_mounted) for chk_mounted
    ff.o(i.f_stat) refers to ff.o(i.follow_path) for follow_path
    ff.o(i.f_stat) refers to ff.o(i.get_fileinfo) for get_fileinfo
    ff.o(i.f_stat) refers to ff.o(.bss) for LfnBuf
    ff.o(i.f_sync) refers to ff.o(i.validate) for validate
    ff.o(i.f_sync) refers to diskio.o(i.disk_write) for disk_write
    ff.o(i.f_sync) refers to ff.o(i.move_window) for move_window
    ff.o(i.f_sync) refers to diskio.o(i.get_fattime) for get_fattime
    ff.o(i.f_sync) refers to ff.o(i.sync) for sync
    ff.o(i.f_truncate) refers to ff.o(i.validate) for validate
    ff.o(i.f_truncate) refers to ff.o(i.remove_chain) for remove_chain
    ff.o(i.f_truncate) refers to ff.o(i.get_fat) for get_fat
    ff.o(i.f_truncate) refers to ff.o(i.put_fat) for put_fat
    ff.o(i.f_unlink) refers to ff.o(i.chk_mounted) for chk_mounted
    ff.o(i.f_unlink) refers to ff.o(i.follow_path) for follow_path
    ff.o(i.f_unlink) refers to ff.o(i.mem_cpy) for mem_cpy
    ff.o(i.f_unlink) refers to ff.o(i.dir_sdi) for dir_sdi
    ff.o(i.f_unlink) refers to ff.o(i.dir_read) for dir_read
    ff.o(i.f_unlink) refers to ff.o(i.dir_remove) for dir_remove
    ff.o(i.f_unlink) refers to ff.o(i.remove_chain) for remove_chain
    ff.o(i.f_unlink) refers to ff.o(i.sync) for sync
    ff.o(i.f_unlink) refers to ff.o(.bss) for LfnBuf
    ff.o(i.f_utime) refers to ff.o(i.chk_mounted) for chk_mounted
    ff.o(i.f_utime) refers to ff.o(i.follow_path) for follow_path
    ff.o(i.f_utime) refers to ff.o(i.sync) for sync
    ff.o(i.f_utime) refers to ff.o(.bss) for LfnBuf
    ff.o(i.f_write) refers to ff.o(i.validate) for validate
    ff.o(i.f_write) refers to ff.o(i.create_chain) for create_chain
    ff.o(i.f_write) refers to diskio.o(i.disk_write) for disk_write
    ff.o(i.f_write) refers to ff.o(i.clust2sect) for clust2sect
    ff.o(i.f_write) refers to ff.o(i.mem_cpy) for mem_cpy
    ff.o(i.f_write) refers to diskio.o(i.disk_read) for disk_read
    ff.o(i.fit_lfn) refers to ff.o(.constdata) for LfnOfs
    ff.o(i.follow_path) refers to ff.o(i.dir_sdi) for dir_sdi
    ff.o(i.follow_path) refers to ff.o(i.create_name) for create_name
    ff.o(i.follow_path) refers to ff.o(i.dir_find) for dir_find
    ff.o(i.gen_numname) refers to ff.o(i.mem_cpy) for mem_cpy
    ff.o(i.get_fat) refers to ff.o(i.move_window) for move_window
    ff.o(i.get_fileinfo) refers to ccsbcs.o(i.ff_convert) for ff_convert
    ff.o(i.move_window) refers to diskio.o(i.disk_write) for disk_write
    ff.o(i.move_window) refers to diskio.o(i.disk_read) for disk_read
    ff.o(i.pick_lfn) refers to ff.o(.constdata) for LfnOfs
    ff.o(i.put_fat) refers to ff.o(i.move_window) for move_window
    ff.o(i.remove_chain) refers to ff.o(i.get_fat) for get_fat
    ff.o(i.remove_chain) refers to ff.o(i.put_fat) for put_fat
    ff.o(i.sync) refers to ff.o(i.move_window) for move_window
    ff.o(i.sync) refers to ff.o(i.mem_set) for mem_set
    ff.o(i.sync) refers to diskio.o(i.disk_write) for disk_write
    ff.o(i.sync) refers to diskio.o(i.disk_ioctl) for disk_ioctl
    ff.o(i.validate) refers to diskio.o(i.disk_status) for disk_status
    ccsbcs.o(i.ff_convert) refers to ccsbcs.o(.constdata) for Tbl
    ccsbcs.o(i.ff_wtoupper) refers to ccsbcs.o(.constdata) for tbl_lower
    tan.o(i.__softfp_tan) refers (Special) to iusefp.o(.text) for __I$use$fp
    tan.o(i.__softfp_tan) refers to errno.o(i.__set_errno) for __set_errno
    tan.o(i.__softfp_tan) refers to dunder.o(i.__mathlib_dbl_invalid) for __mathlib_dbl_invalid
    tan.o(i.__softfp_tan) refers to dunder.o(i.__mathlib_dbl_infnan) for __mathlib_dbl_infnan
    tan.o(i.__softfp_tan) refers to rred.o(i.__ieee754_rem_pio2) for __ieee754_rem_pio2
    tan.o(i.__softfp_tan) refers to tan_i.o(i.__kernel_tan) for __kernel_tan
    tan.o(i.tan) refers (Special) to iusefp.o(.text) for __I$use$fp
    tan.o(i.tan) refers to errno.o(i.__set_errno) for __set_errno
    tan.o(i.tan) refers to dunder.o(i.__mathlib_dbl_invalid) for __mathlib_dbl_invalid
    tan.o(i.tan) refers to dunder.o(i.__mathlib_dbl_infnan) for __mathlib_dbl_infnan
    tan.o(i.tan) refers to rred.o(i.__ieee754_rem_pio2) for __ieee754_rem_pio2
    tan.o(i.tan) refers to tan_i.o(i.__kernel_tan) for __kernel_tan
    tan_x.o(i.____softfp_tan$lsc) refers (Special) to iusefp.o(.text) for __I$use$fp
    tan_x.o(i.____softfp_tan$lsc) refers to errno.o(i.__set_errno) for __set_errno
    tan_x.o(i.____softfp_tan$lsc) refers to dunder.o(i.__mathlib_dbl_infnan) for __mathlib_dbl_infnan
    tan_x.o(i.____softfp_tan$lsc) refers to rred.o(i.__ieee754_rem_pio2) for __ieee754_rem_pio2
    tan_x.o(i.____softfp_tan$lsc) refers to tan_i.o(i.__kernel_tan) for __kernel_tan
    tan_x.o(i.__tan$lsc) refers (Special) to iusefp.o(.text) for __I$use$fp
    tan_x.o(i.__tan$lsc) refers to errno.o(i.__set_errno) for __set_errno
    tan_x.o(i.__tan$lsc) refers to dunder.o(i.__mathlib_dbl_infnan) for __mathlib_dbl_infnan
    tan_x.o(i.__tan$lsc) refers to rred.o(i.__ieee754_rem_pio2) for __ieee754_rem_pio2
    tan_x.o(i.__tan$lsc) refers to tan_i.o(i.__kernel_tan) for __kernel_tan
    entry.o(.ARM.Collect$$$$00000000) refers (Special) to entry10a.o(.ARM.Collect$$$$0000000F) for __rt_final_cpp
    entry.o(.ARM.Collect$$$$00000000) refers (Special) to entry11a.o(.ARM.Collect$$$$00000011) for __rt_final_exit
    entry.o(.ARM.Collect$$$$00000000) refers (Special) to entry12b.o(.ARM.Collect$$$$0000000E) for __rt_lib_shutdown_fini
    entry.o(.ARM.Collect$$$$00000000) refers (Special) to entry7b.o(.ARM.Collect$$$$00000008) for _main_clock
    entry.o(.ARM.Collect$$$$00000000) refers (Special) to entry8b.o(.ARM.Collect$$$$0000000A) for _main_cpp_init
    entry.o(.ARM.Collect$$$$00000000) refers (Special) to entry9a.o(.ARM.Collect$$$$0000000B) for _main_init
    entry.o(.ARM.Collect$$$$00000000) refers (Special) to entry5.o(.ARM.Collect$$$$00000004) for _main_scatterload
    entry.o(.ARM.Collect$$$$00000000) refers (Special) to entry2.o(.ARM.Collect$$$$00000001) for _main_stk
    printfb.o(i.__0fprintf$bare) refers to printfb.o(i._printf_core) for _printf_core
    printfb.o(i.__0fprintf$bare) refers to fatfs.o(i.fputc) for fputc
    printfb.o(i.__0printf$bare) refers to printfb.o(i._printf_core) for _printf_core
    printfb.o(i.__0printf$bare) refers to fatfs.o(i.fputc) for fputc
    printfb.o(i.__0printf$bare) refers to stdout.o(.data) for __stdout
    printfb.o(i.__0snprintf$bare) refers to printfb.o(i._printf_core) for _printf_core
    printfb.o(i.__0snprintf$bare) refers to printfb.o(i._snputc) for _snputc
    printfb.o(i.__0sprintf$bare) refers to printfb.o(i._printf_core) for _printf_core
    printfb.o(i.__0sprintf$bare) refers to printfb.o(i._sputc) for _sputc
    printfb.o(i.__0vfprintf$bare) refers to printfb.o(i._printf_core) for _printf_core
    printfb.o(i.__0vfprintf$bare) refers to fatfs.o(i.fputc) for fputc
    printfb.o(i.__0vprintf$bare) refers to printfb.o(i._printf_core) for _printf_core
    printfb.o(i.__0vprintf$bare) refers to fatfs.o(i.fputc) for fputc
    printfb.o(i.__0vprintf$bare) refers to stdout.o(.data) for __stdout
    printfb.o(i.__0vsnprintf$bare) refers to printfb.o(i._printf_core) for _printf_core
    printfb.o(i.__0vsnprintf$bare) refers to printfb.o(i._snputc) for _snputc
    printfb.o(i.__0vsprintf$bare) refers to printfb.o(i._printf_core) for _printf_core
    printfb.o(i.__0vsprintf$bare) refers to printfb.o(i._sputc) for _sputc
    printf0.o(i.__0fprintf$0) refers to printf0.o(i._printf_core) for _printf_core
    printf0.o(i.__0fprintf$0) refers to fatfs.o(i.fputc) for fputc
    printf0.o(i.__0printf$0) refers to printf0.o(i._printf_core) for _printf_core
    printf0.o(i.__0printf$0) refers to fatfs.o(i.fputc) for fputc
    printf0.o(i.__0printf$0) refers to stdout.o(.data) for __stdout
    printf0.o(i.__0snprintf$0) refers to printf0.o(i._printf_core) for _printf_core
    printf0.o(i.__0snprintf$0) refers to printf0.o(i._snputc) for _snputc
    printf0.o(i.__0sprintf$0) refers to printf0.o(i._printf_core) for _printf_core
    printf0.o(i.__0sprintf$0) refers to printf0.o(i._sputc) for _sputc
    printf0.o(i.__0vfprintf$0) refers to printf0.o(i._printf_core) for _printf_core
    printf0.o(i.__0vfprintf$0) refers to fatfs.o(i.fputc) for fputc
    printf0.o(i.__0vprintf$0) refers to printf0.o(i._printf_core) for _printf_core
    printf0.o(i.__0vprintf$0) refers to fatfs.o(i.fputc) for fputc
    printf0.o(i.__0vprintf$0) refers to stdout.o(.data) for __stdout
    printf0.o(i.__0vsnprintf$0) refers to printf0.o(i._printf_core) for _printf_core
    printf0.o(i.__0vsnprintf$0) refers to printf0.o(i._snputc) for _snputc
    printf0.o(i.__0vsprintf$0) refers to printf0.o(i._printf_core) for _printf_core
    printf0.o(i.__0vsprintf$0) refers to printf0.o(i._sputc) for _sputc
    printf1.o(i.__0fprintf$1) refers to printf1.o(i._printf_core) for _printf_core
    printf1.o(i.__0fprintf$1) refers to fatfs.o(i.fputc) for fputc
    printf1.o(i.__0printf$1) refers to printf1.o(i._printf_core) for _printf_core
    printf1.o(i.__0printf$1) refers to fatfs.o(i.fputc) for fputc
    printf1.o(i.__0printf$1) refers to stdout.o(.data) for __stdout
    printf1.o(i.__0snprintf$1) refers to printf1.o(i._printf_core) for _printf_core
    printf1.o(i.__0snprintf$1) refers to printf1.o(i._snputc) for _snputc
    printf1.o(i.__0sprintf$1) refers to printf1.o(i._printf_core) for _printf_core
    printf1.o(i.__0sprintf$1) refers to printf1.o(i._sputc) for _sputc
    printf1.o(i.__0vfprintf$1) refers to printf1.o(i._printf_core) for _printf_core
    printf1.o(i.__0vfprintf$1) refers to fatfs.o(i.fputc) for fputc
    printf1.o(i.__0vprintf$1) refers to printf1.o(i._printf_core) for _printf_core
    printf1.o(i.__0vprintf$1) refers to fatfs.o(i.fputc) for fputc
    printf1.o(i.__0vprintf$1) refers to stdout.o(.data) for __stdout
    printf1.o(i.__0vsnprintf$1) refers to printf1.o(i._printf_core) for _printf_core
    printf1.o(i.__0vsnprintf$1) refers to printf1.o(i._snputc) for _snputc
    printf1.o(i.__0vsprintf$1) refers to printf1.o(i._printf_core) for _printf_core
    printf1.o(i.__0vsprintf$1) refers to printf1.o(i._sputc) for _sputc
    printf1.o(i._printf_core) refers to uidiv.o(.text) for __aeabi_uidivmod
    printf2.o(i.__0fprintf$2) refers to printf2.o(i._printf_core) for _printf_core
    printf2.o(i.__0fprintf$2) refers to fatfs.o(i.fputc) for fputc
    printf2.o(i.__0printf$2) refers to printf2.o(i._printf_core) for _printf_core
    printf2.o(i.__0printf$2) refers to fatfs.o(i.fputc) for fputc
    printf2.o(i.__0printf$2) refers to stdout.o(.data) for __stdout
    printf2.o(i.__0snprintf$2) refers to printf2.o(i._printf_core) for _printf_core
    printf2.o(i.__0snprintf$2) refers to printf2.o(i._snputc) for _snputc
    printf2.o(i.__0sprintf$2) refers to printf2.o(i._printf_core) for _printf_core
    printf2.o(i.__0sprintf$2) refers to printf2.o(i._sputc) for _sputc
    printf2.o(i.__0vfprintf$2) refers to printf2.o(i._printf_core) for _printf_core
    printf2.o(i.__0vfprintf$2) refers to fatfs.o(i.fputc) for fputc
    printf2.o(i.__0vprintf$2) refers to printf2.o(i._printf_core) for _printf_core
    printf2.o(i.__0vprintf$2) refers to fatfs.o(i.fputc) for fputc
    printf2.o(i.__0vprintf$2) refers to stdout.o(.data) for __stdout
    printf2.o(i.__0vsnprintf$2) refers to printf2.o(i._printf_core) for _printf_core
    printf2.o(i.__0vsnprintf$2) refers to printf2.o(i._snputc) for _snputc
    printf2.o(i.__0vsprintf$2) refers to printf2.o(i._printf_core) for _printf_core
    printf2.o(i.__0vsprintf$2) refers to printf2.o(i._sputc) for _sputc
    printf3.o(i.__0fprintf$3) refers to printf3.o(i._printf_core) for _printf_core
    printf3.o(i.__0fprintf$3) refers to fatfs.o(i.fputc) for fputc
    printf3.o(i.__0printf$3) refers to printf3.o(i._printf_core) for _printf_core
    printf3.o(i.__0printf$3) refers to fatfs.o(i.fputc) for fputc
    printf3.o(i.__0printf$3) refers to stdout.o(.data) for __stdout
    printf3.o(i.__0snprintf$3) refers to printf3.o(i._printf_core) for _printf_core
    printf3.o(i.__0snprintf$3) refers to printf3.o(i._snputc) for _snputc
    printf3.o(i.__0sprintf$3) refers to printf3.o(i._printf_core) for _printf_core
    printf3.o(i.__0sprintf$3) refers to printf3.o(i._sputc) for _sputc
    printf3.o(i.__0vfprintf$3) refers to printf3.o(i._printf_core) for _printf_core
    printf3.o(i.__0vfprintf$3) refers to fatfs.o(i.fputc) for fputc
    printf3.o(i.__0vprintf$3) refers to printf3.o(i._printf_core) for _printf_core
    printf3.o(i.__0vprintf$3) refers to fatfs.o(i.fputc) for fputc
    printf3.o(i.__0vprintf$3) refers to stdout.o(.data) for __stdout
    printf3.o(i.__0vsnprintf$3) refers to printf3.o(i._printf_core) for _printf_core
    printf3.o(i.__0vsnprintf$3) refers to printf3.o(i._snputc) for _snputc
    printf3.o(i.__0vsprintf$3) refers to printf3.o(i._printf_core) for _printf_core
    printf3.o(i.__0vsprintf$3) refers to printf3.o(i._sputc) for _sputc
    printf3.o(i._printf_core) refers to uidiv.o(.text) for __aeabi_uidivmod
    printf4.o(i.__0fprintf$4) refers to printf4.o(i._printf_core) for _printf_core
    printf4.o(i.__0fprintf$4) refers to fatfs.o(i.fputc) for fputc
    printf4.o(i.__0printf$4) refers to printf4.o(i._printf_core) for _printf_core
    printf4.o(i.__0printf$4) refers to fatfs.o(i.fputc) for fputc
    printf4.o(i.__0printf$4) refers to stdout.o(.data) for __stdout
    printf4.o(i.__0snprintf$4) refers to printf4.o(i._printf_core) for _printf_core
    printf4.o(i.__0snprintf$4) refers to printf4.o(i._snputc) for _snputc
    printf4.o(i.__0sprintf$4) refers to printf4.o(i._printf_core) for _printf_core
    printf4.o(i.__0sprintf$4) refers to printf4.o(i._sputc) for _sputc
    printf4.o(i.__0vfprintf$4) refers to printf4.o(i._printf_core) for _printf_core
    printf4.o(i.__0vfprintf$4) refers to fatfs.o(i.fputc) for fputc
    printf4.o(i.__0vprintf$4) refers to printf4.o(i._printf_core) for _printf_core
    printf4.o(i.__0vprintf$4) refers to fatfs.o(i.fputc) for fputc
    printf4.o(i.__0vprintf$4) refers to stdout.o(.data) for __stdout
    printf4.o(i.__0vsnprintf$4) refers to printf4.o(i._printf_core) for _printf_core
    printf4.o(i.__0vsnprintf$4) refers to printf4.o(i._snputc) for _snputc
    printf4.o(i.__0vsprintf$4) refers to printf4.o(i._printf_core) for _printf_core
    printf4.o(i.__0vsprintf$4) refers to printf4.o(i._sputc) for _sputc
    printf4.o(i._printf_core) refers to uldiv.o(.text) for __aeabi_uldivmod
    printf5.o(i.__0fprintf$5) refers to printf5.o(i._printf_core) for _printf_core
    printf5.o(i.__0fprintf$5) refers to fatfs.o(i.fputc) for fputc
    printf5.o(i.__0printf$5) refers to printf5.o(i._printf_core) for _printf_core
    printf5.o(i.__0printf$5) refers to fatfs.o(i.fputc) for fputc
    printf5.o(i.__0printf$5) refers to stdout.o(.data) for __stdout
    printf5.o(i.__0snprintf$5) refers to printf5.o(i._printf_core) for _printf_core
    printf5.o(i.__0snprintf$5) refers to printf5.o(i._snputc) for _snputc
    printf5.o(i.__0sprintf$5) refers to printf5.o(i._printf_core) for _printf_core
    printf5.o(i.__0sprintf$5) refers to printf5.o(i._sputc) for _sputc
    printf5.o(i.__0vfprintf$5) refers to printf5.o(i._printf_core) for _printf_core
    printf5.o(i.__0vfprintf$5) refers to fatfs.o(i.fputc) for fputc
    printf5.o(i.__0vprintf$5) refers to printf5.o(i._printf_core) for _printf_core
    printf5.o(i.__0vprintf$5) refers to fatfs.o(i.fputc) for fputc
    printf5.o(i.__0vprintf$5) refers to stdout.o(.data) for __stdout
    printf5.o(i.__0vsnprintf$5) refers to printf5.o(i._printf_core) for _printf_core
    printf5.o(i.__0vsnprintf$5) refers to printf5.o(i._snputc) for _snputc
    printf5.o(i.__0vsprintf$5) refers to printf5.o(i._printf_core) for _printf_core
    printf5.o(i.__0vsprintf$5) refers to printf5.o(i._sputc) for _sputc
    printf5.o(i._printf_core) refers to uldiv.o(.text) for __aeabi_uldivmod
    printf6.o(i.__0fprintf$6) refers to printf6.o(i._printf_core) for _printf_core
    printf6.o(i.__0fprintf$6) refers to fatfs.o(i.fputc) for fputc
    printf6.o(i.__0printf$6) refers to printf6.o(i._printf_core) for _printf_core
    printf6.o(i.__0printf$6) refers to fatfs.o(i.fputc) for fputc
    printf6.o(i.__0printf$6) refers to stdout.o(.data) for __stdout
    printf6.o(i.__0snprintf$6) refers to printf6.o(i._printf_core) for _printf_core
    printf6.o(i.__0snprintf$6) refers to printf6.o(i._snputc) for _snputc
    printf6.o(i.__0sprintf$6) refers to printf6.o(i._printf_core) for _printf_core
    printf6.o(i.__0sprintf$6) refers to printf6.o(i._sputc) for _sputc
    printf6.o(i.__0vfprintf$6) refers to printf6.o(i._printf_core) for _printf_core
    printf6.o(i.__0vfprintf$6) refers to fatfs.o(i.fputc) for fputc
    printf6.o(i.__0vprintf$6) refers to printf6.o(i._printf_core) for _printf_core
    printf6.o(i.__0vprintf$6) refers to fatfs.o(i.fputc) for fputc
    printf6.o(i.__0vprintf$6) refers to stdout.o(.data) for __stdout
    printf6.o(i.__0vsnprintf$6) refers to printf6.o(i._printf_core) for _printf_core
    printf6.o(i.__0vsnprintf$6) refers to printf6.o(i._snputc) for _snputc
    printf6.o(i.__0vsprintf$6) refers to printf6.o(i._printf_core) for _printf_core
    printf6.o(i.__0vsprintf$6) refers to printf6.o(i._sputc) for _sputc
    printf6.o(i._printf_core) refers to printf6.o(i._printf_pre_padding) for _printf_pre_padding
    printf6.o(i._printf_core) refers to uidiv.o(.text) for __aeabi_uidivmod
    printf6.o(i._printf_core) refers to printf6.o(i._printf_post_padding) for _printf_post_padding
    printf7.o(i.__0fprintf$7) refers to printf7.o(i._printf_core) for _printf_core
    printf7.o(i.__0fprintf$7) refers to fatfs.o(i.fputc) for fputc
    printf7.o(i.__0printf$7) refers to printf7.o(i._printf_core) for _printf_core
    printf7.o(i.__0printf$7) refers to fatfs.o(i.fputc) for fputc
    printf7.o(i.__0printf$7) refers to stdout.o(.data) for __stdout
    printf7.o(i.__0snprintf$7) refers to printf7.o(i._printf_core) for _printf_core
    printf7.o(i.__0snprintf$7) refers to printf7.o(i._snputc) for _snputc
    printf7.o(i.__0sprintf$7) refers to printf7.o(i._printf_core) for _printf_core
    printf7.o(i.__0sprintf$7) refers to printf7.o(i._sputc) for _sputc
    printf7.o(i.__0vfprintf$7) refers to printf7.o(i._printf_core) for _printf_core
    printf7.o(i.__0vfprintf$7) refers to fatfs.o(i.fputc) for fputc
    printf7.o(i.__0vprintf$7) refers to printf7.o(i._printf_core) for _printf_core
    printf7.o(i.__0vprintf$7) refers to fatfs.o(i.fputc) for fputc
    printf7.o(i.__0vprintf$7) refers to stdout.o(.data) for __stdout
    printf7.o(i.__0vsnprintf$7) refers to printf7.o(i._printf_core) for _printf_core
    printf7.o(i.__0vsnprintf$7) refers to printf7.o(i._snputc) for _snputc
    printf7.o(i.__0vsprintf$7) refers to printf7.o(i._printf_core) for _printf_core
    printf7.o(i.__0vsprintf$7) refers to printf7.o(i._sputc) for _sputc
    printf7.o(i._printf_core) refers to printf7.o(i._printf_pre_padding) for _printf_pre_padding
    printf7.o(i._printf_core) refers to uldiv.o(.text) for __aeabi_uldivmod
    printf7.o(i._printf_core) refers to printf7.o(i._printf_post_padding) for _printf_post_padding
    printf8.o(i.__0fprintf$8) refers to printf8.o(i._printf_core) for _printf_core
    printf8.o(i.__0fprintf$8) refers to fatfs.o(i.fputc) for fputc
    printf8.o(i.__0printf$8) refers to printf8.o(i._printf_core) for _printf_core
    printf8.o(i.__0printf$8) refers to fatfs.o(i.fputc) for fputc
    printf8.o(i.__0printf$8) refers to stdout.o(.data) for __stdout
    printf8.o(i.__0snprintf$8) refers to printf8.o(i._printf_core) for _printf_core
    printf8.o(i.__0snprintf$8) refers to printf8.o(i._snputc) for _snputc
    printf8.o(i.__0sprintf$8) refers to printf8.o(i._printf_core) for _printf_core
    printf8.o(i.__0sprintf$8) refers to printf8.o(i._sputc) for _sputc
    printf8.o(i.__0vfprintf$8) refers to printf8.o(i._printf_core) for _printf_core
    printf8.o(i.__0vfprintf$8) refers to fatfs.o(i.fputc) for fputc
    printf8.o(i.__0vprintf$8) refers to printf8.o(i._printf_core) for _printf_core
    printf8.o(i.__0vprintf$8) refers to fatfs.o(i.fputc) for fputc
    printf8.o(i.__0vprintf$8) refers to stdout.o(.data) for __stdout
    printf8.o(i.__0vsnprintf$8) refers to printf8.o(i._printf_core) for _printf_core
    printf8.o(i.__0vsnprintf$8) refers to printf8.o(i._snputc) for _snputc
    printf8.o(i.__0vsprintf$8) refers to printf8.o(i._printf_core) for _printf_core
    printf8.o(i.__0vsprintf$8) refers to printf8.o(i._sputc) for _sputc
    printf8.o(i._printf_core) refers to printf8.o(i._printf_pre_padding) for _printf_pre_padding
    printf8.o(i._printf_core) refers to uldiv.o(.text) for __aeabi_uldivmod
    printf8.o(i._printf_core) refers to printf8.o(i._printf_post_padding) for _printf_post_padding
    printfa.o(i.__0fprintf) refers (Special) to iusefp.o(.text) for __I$use$fp
    printfa.o(i.__0fprintf) refers to printfa.o(i._printf_core) for _printf_core
    printfa.o(i.__0fprintf) refers to fatfs.o(i.fputc) for fputc
    printfa.o(i.__0printf) refers (Special) to iusefp.o(.text) for __I$use$fp
    printfa.o(i.__0printf) refers to printfa.o(i._printf_core) for _printf_core
    printfa.o(i.__0printf) refers to fatfs.o(i.fputc) for fputc
    printfa.o(i.__0printf) refers to stdout.o(.data) for __stdout
    printfa.o(i.__0snprintf) refers (Special) to iusefp.o(.text) for __I$use$fp
    printfa.o(i.__0snprintf) refers to printfa.o(i._printf_core) for _printf_core
    printfa.o(i.__0snprintf) refers to printfa.o(i._snputc) for _snputc
    printfa.o(i.__0sprintf) refers (Special) to iusefp.o(.text) for __I$use$fp
    printfa.o(i.__0sprintf) refers to printfa.o(i._printf_core) for _printf_core
    printfa.o(i.__0sprintf) refers to printfa.o(i._sputc) for _sputc
    printfa.o(i.__0vfprintf) refers (Special) to iusefp.o(.text) for __I$use$fp
    printfa.o(i.__0vfprintf) refers to printfa.o(i._printf_core) for _printf_core
    printfa.o(i.__0vfprintf) refers to fatfs.o(i.fputc) for fputc
    printfa.o(i.__0vprintf) refers (Special) to iusefp.o(.text) for __I$use$fp
    printfa.o(i.__0vprintf) refers to printfa.o(i._printf_core) for _printf_core
    printfa.o(i.__0vprintf) refers to fatfs.o(i.fputc) for fputc
    printfa.o(i.__0vprintf) refers to stdout.o(.data) for __stdout
    printfa.o(i.__0vsnprintf) refers (Special) to iusefp.o(.text) for __I$use$fp
    printfa.o(i.__0vsnprintf) refers to printfa.o(i._printf_core) for _printf_core
    printfa.o(i.__0vsnprintf) refers to printfa.o(i._snputc) for _snputc
    printfa.o(i.__0vsprintf) refers (Special) to iusefp.o(.text) for __I$use$fp
    printfa.o(i.__0vsprintf) refers to printfa.o(i._printf_core) for _printf_core
    printfa.o(i.__0vsprintf) refers to printfa.o(i._sputc) for _sputc
    printfa.o(i._fp_digits) refers (Special) to iusefp.o(.text) for __I$use$fp
    printfa.o(i._fp_digits) refers to dmul.o(.text) for __aeabi_dmul
    printfa.o(i._fp_digits) refers to ddiv.o(.text) for __aeabi_ddiv
    printfa.o(i._fp_digits) refers to cdrcmple.o(.text) for __aeabi_cdrcmple
    printfa.o(i._fp_digits) refers to dadd.o(.text) for __aeabi_dadd
    printfa.o(i._fp_digits) refers to dfixul.o(.text) for __aeabi_d2ulz
    printfa.o(i._fp_digits) refers to uldiv.o(.text) for __aeabi_uldivmod
    printfa.o(i._printf_core) refers (Special) to iusefp.o(.text) for __I$use$fp
    printfa.o(i._printf_core) refers to printfa.o(i._printf_pre_padding) for _printf_pre_padding
    printfa.o(i._printf_core) refers to uldiv.o(.text) for __aeabi_uldivmod
    printfa.o(i._printf_core) refers to printfa.o(i._printf_post_padding) for _printf_post_padding
    printfa.o(i._printf_core) refers to printfa.o(i._fp_digits) for _fp_digits
    printfa.o(i._printf_core) refers to uidiv.o(.text) for __aeabi_uidivmod
    printfa.o(i._printf_post_padding) refers (Special) to iusefp.o(.text) for __I$use$fp
    printfa.o(i._printf_pre_padding) refers (Special) to iusefp.o(.text) for __I$use$fp
    printfa.o(i._snputc) refers (Special) to iusefp.o(.text) for __I$use$fp
    printfa.o(i._sputc) refers (Special) to iusefp.o(.text) for __I$use$fp
    fadd.o(.text) refers (Special) to iusefp.o(.text) for __I$use$fp
    fadd.o(.text) refers to fepilogue.o(.text) for _float_epilogue
    fmul.o(.text) refers (Special) to iusefp.o(.text) for __I$use$fp
    fdiv.o(.text) refers (Special) to iusefp.o(.text) for __I$use$fp
    fdiv.o(.text) refers to fepilogue.o(.text) for _float_round
    dadd.o(.text) refers (Special) to iusefp.o(.text) for __I$use$fp
    dadd.o(.text) refers to llshl.o(.text) for __aeabi_llsl
    dadd.o(.text) refers to llsshr.o(.text) for __aeabi_lasr
    dadd.o(.text) refers to depilogue.o(.text) for _double_epilogue
    dmul.o(.text) refers (Special) to iusefp.o(.text) for __I$use$fp
    dmul.o(.text) refers to depilogue.o(.text) for _double_epilogue
    ddiv.o(.text) refers (Special) to iusefp.o(.text) for __I$use$fp
    ddiv.o(.text) refers to depilogue.o(.text) for _double_round
    fflti.o(.text) refers (Special) to iusefp.o(.text) for __I$use$fp
    fflti.o(.text) refers to fepilogue.o(.text) for _float_epilogue
    ffltui.o(.text) refers (Special) to iusefp.o(.text) for __I$use$fp
    ffltui.o(.text) refers to fepilogue.o(.text) for _float_epilogue
    ffltl.o(.text) refers (Special) to iusefp.o(.text) for __I$use$fp
    ffltl.o(.text) refers to fepilogue.o(.text) for _float_epilogue
    dflti.o(.text) refers (Special) to iusefp.o(.text) for __I$use$fp
    dflti.o(.text) refers to depilogue.o(.text) for _double_epilogue
    dfltui.o(.text) refers (Special) to iusefp.o(.text) for __I$use$fp
    dfltui.o(.text) refers to depilogue.o(.text) for _double_epilogue
    dfltl.o(.text) refers (Special) to iusefp.o(.text) for __I$use$fp
    dfltl.o(.text) refers to depilogue.o(.text) for _double_epilogue
    ffixi.o(.text) refers (Special) to iusefp.o(.text) for __I$use$fp
    ffixui.o(.text) refers (Special) to iusefp.o(.text) for __I$use$fp
    dfixi.o(.text) refers (Special) to iusefp.o(.text) for __I$use$fp
    dfixi.o(.text) refers to llushr.o(.text) for __aeabi_llsr
    dfixui.o(.text) refers (Special) to iusefp.o(.text) for __I$use$fp
    dfixui.o(.text) refers to llushr.o(.text) for __aeabi_llsr
    f2d.o(.text) refers (Special) to iusefp.o(.text) for __I$use$fp
    d2f.o(.text) refers (Special) to iusefp.o(.text) for __I$use$fp
    d2f.o(.text) refers to fepilogue.o(.text) for _float_round
    cfcmple.o(.text) refers (Special) to iusefp.o(.text) for __I$use$fp
    cfrcmple.o(.text) refers (Special) to iusefp.o(.text) for __I$use$fp
    dunder.o(i.__mathlib_dbl_divzero) refers to ddiv.o(.text) for __aeabi_ddiv
    dunder.o(i.__mathlib_dbl_infnan) refers to dscalb.o(.text) for __ARM_scalbn
    dunder.o(i.__mathlib_dbl_infnan2) refers to dadd.o(.text) for __aeabi_dadd
    dunder.o(i.__mathlib_dbl_invalid) refers to ddiv.o(.text) for __aeabi_ddiv
    dunder.o(i.__mathlib_dbl_overflow) refers to dscalb.o(.text) for __ARM_scalbn
    dunder.o(i.__mathlib_dbl_posinfnan) refers to dmul.o(.text) for __aeabi_dmul
    dunder.o(i.__mathlib_dbl_underflow) refers to dscalb.o(.text) for __ARM_scalbn
    rred.o(i.__ieee754_rem_pio2) refers (Special) to iusefp.o(.text) for __I$use$fp
    rred.o(i.__ieee754_rem_pio2) refers to dadd.o(.text) for __aeabi_dsub
    rred.o(i.__ieee754_rem_pio2) refers to dmul.o(.text) for __aeabi_dmul
    rred.o(i.__ieee754_rem_pio2) refers to dfixi.o(.text) for __aeabi_d2iz
    rred.o(i.__ieee754_rem_pio2) refers to dflti.o(.text) for __aeabi_i2d
    rred.o(i.__ieee754_rem_pio2) refers to dfltui.o(.text) for __aeabi_ui2d
    rred.o(i.__ieee754_rem_pio2) refers to dscalb.o(.text) for __ARM_scalbn
    rred.o(i.__ieee754_rem_pio2) refers to rred.o(.constdata) for .constdata
    rred.o(i.__use_accurate_range_reduction) refers (Special) to iusefp.o(.text) for __I$use$fp
    rred.o(.constdata) refers (Special) to iusefp.o(.text) for __I$use$fp
    tan_i.o(i.__kernel_tan) refers (Special) to iusefp.o(.text) for __I$use$fp
    tan_i.o(i.__kernel_tan) refers to dfixi.o(.text) for __aeabi_d2iz
    tan_i.o(i.__kernel_tan) refers to dadd.o(.text) for __aeabi_drsub
    tan_i.o(i.__kernel_tan) refers to dmul.o(.text) for __aeabi_dmul
    tan_i.o(i.__kernel_tan) refers to poly.o(i.__kernel_poly) for __kernel_poly
    tan_i.o(i.__kernel_tan) refers to dflti.o(.text) for __aeabi_i2d
    tan_i.o(i.__kernel_tan) refers to ddiv.o(.text) for __aeabi_ddiv
    tan_i.o(i.__kernel_tan) refers to dscalb.o(.text) for __ARM_scalbn
    tan_i.o(i.__kernel_tan) refers to fpclassify.o(i.__ARM_fpclassify) for __ARM_fpclassify
    tan_i.o(i.__kernel_tan) refers to dunder.o(i.__mathlib_dbl_underflow) for __mathlib_dbl_underflow
    tan_i.o(i.__kernel_tan) refers to tan_i.o(.constdata) for .constdata
    tan_i.o(.constdata) refers (Special) to iusefp.o(.text) for __I$use$fp
    tan_i_x.o(i.____kernel_tan$lsc) refers (Special) to iusefp.o(.text) for __I$use$fp
    tan_i_x.o(i.____kernel_tan$lsc) refers to dfixi.o(.text) for __aeabi_d2iz
    tan_i_x.o(i.____kernel_tan$lsc) refers to dadd.o(.text) for __aeabi_drsub
    tan_i_x.o(i.____kernel_tan$lsc) refers to dmul.o(.text) for __aeabi_dmul
    tan_i_x.o(i.____kernel_tan$lsc) refers to poly.o(i.__kernel_poly) for __kernel_poly
    tan_i_x.o(i.____kernel_tan$lsc) refers to dflti.o(.text) for __aeabi_i2d
    tan_i_x.o(i.____kernel_tan$lsc) refers to ddiv.o(.text) for __aeabi_ddiv
    tan_i_x.o(i.____kernel_tan$lsc) refers to dscalb.o(.text) for __ARM_scalbn
    tan_i_x.o(i.____kernel_tan$lsc) refers to tan_i_x.o(.constdata) for .constdata
    tan_i_x.o(.constdata) refers (Special) to iusefp.o(.text) for __I$use$fp
    entry2.o(.ARM.Collect$$$$00000001) refers to entry2.o(.ARM.Collect$$$$00002712) for __lit__00000000
    entry2.o(.ARM.Collect$$$$00002712) refers to startup_stm32f10x_hd.o(STACK) for __initial_sp
    entry2.o(__vectab_stack_and_reset_area) refers to startup_stm32f10x_hd.o(STACK) for __initial_sp
    entry2.o(__vectab_stack_and_reset_area) refers to entry.o(.ARM.Collect$$$$00000000) for __main
    entry5.o(.ARM.Collect$$$$00000004) refers to init.o(.text) for __scatterload
    entry9a.o(.ARM.Collect$$$$0000000B) refers to main.o(i.main) for main
    entry9b.o(.ARM.Collect$$$$0000000C) refers to main.o(i.main) for main
    uldiv.o(.text) refers to llushr.o(.text) for __aeabi_llsr
    uldiv.o(.text) refers to llshl.o(.text) for __aeabi_llsl
    errno.o(i.__aeabi_errno_addr) refers to errno.o(.data) for .data
    errno.o(i.__read_errno) refers to errno.o(.data) for .data
    errno.o(i.__set_errno) refers to errno.o(.data) for .data
    depilogue.o(.text) refers to llshl.o(.text) for __aeabi_llsl
    depilogue.o(.text) refers to llushr.o(.text) for __aeabi_llsr
    dfixul.o(.text) refers to llushr.o(.text) for __aeabi_llsr
    dfixul.o(.text) refers to llshl.o(.text) for __aeabi_llsl
    fpclassify.o(i.__ARM_fpclassify) refers (Special) to iusefp.o(.text) for __I$use$fp
    poly.o(i.__kernel_poly) refers (Special) to iusefp.o(.text) for __I$use$fp
    poly.o(i.__kernel_poly) refers to dmul.o(.text) for __aeabi_dmul
    poly.o(i.__kernel_poly) refers to dadd.o(.text) for __aeabi_dadd
    init.o(.text) refers to entry5.o(.ARM.Collect$$$$00000004) for __main_after_scatterload


==============================================================================

Removing Unused input sections from the image.

    Removing disp.o(i.Disp_ReadPic), (148 bytes).
    Removing disp.o(i.Disp_Rst), (16 bytes).
    Removing disp.o(i.Disp_SetPic), (144 bytes).
    Removing disp.o(i.Disp_WrStr), (108 bytes).
    Removing disp.o(.constdata), (7 bytes).
    Removing calc.o(i.CalConvertData), (16 bytes).
    Removing calc.o(i.CalFlow), (72 bytes).
    Removing calc.o(i.CalFlowQ), (32 bytes).
    Removing calc.o(i.CalHeatQ), (68 bytes).
    Removing calc.o(i.CalcAveTimeDiff), (580 bytes).
    Removing calc.o(i.OutOCT), (312 bytes).
    Removing calc.o(i.Sum_FlowQ), (440 bytes).
    Removing calc.o(i.Sum_HeatQ), (292 bytes).
    Removing calc.o(.constdata), (32 bytes).
    Removing fm25cl64.o(i.Read_FM25CL64_Byte), (60 bytes).
    Removing fm25cl64.o(i.Write_FM25CL64_Byte), (68 bytes).
    Removing flowmeterhandle.o(i.COM1_SendRecProcess), (136 bytes).
    Removing flowmeterhandle.o(i.DataAnalysis), (208 bytes).
    Removing flowmeterhandle.o(i.GetFlowMeter1), (652 bytes).
    Removing flowmeterhandle.o(i.GetFlowMeter2), (452 bytes).
    Removing flowmeterhandle.o(.data), (2 bytes).
    Removing modbusprotocol.o(i.ChToLong), (28 bytes).
    Removing modbusprotocol.o(i.LongToCh), (24 bytes).
    Removing modbusprotocol.o(i.MbRegWrite), (2624 bytes).
    Removing modbusprotocol.o(i.ModBusProtocol), (872 bytes).
    Removing memory.o(i.TestFM), (58 bytes).
    Removing com.o(i.Tx1Send), (52 bytes).
    Removing misc.o(i.NVIC_SetVectorTable), (20 bytes).
    Removing misc.o(i.NVIC_SystemLPConfig), (32 bytes).
    Removing misc.o(i.SysTick_CLKSourceConfig), (40 bytes).
    Removing stm32f10x_gpio.o(i.GPIO_AFIODeInit), (20 bytes).
    Removing stm32f10x_gpio.o(i.GPIO_DeInit), (200 bytes).
    Removing stm32f10x_gpio.o(i.GPIO_ETH_MediaInterfaceConfig), (12 bytes).
    Removing stm32f10x_gpio.o(i.GPIO_EXTILineConfig), (64 bytes).
    Removing stm32f10x_gpio.o(i.GPIO_EventOutputCmd), (12 bytes).
    Removing stm32f10x_gpio.o(i.GPIO_EventOutputConfig), (32 bytes).
    Removing stm32f10x_gpio.o(i.GPIO_PinLockConfig), (18 bytes).
    Removing stm32f10x_gpio.o(i.GPIO_PinRemapConfig), (144 bytes).
    Removing stm32f10x_gpio.o(i.GPIO_ReadInputData), (8 bytes).
    Removing stm32f10x_gpio.o(i.GPIO_ReadOutputData), (8 bytes).
    Removing stm32f10x_gpio.o(i.GPIO_ReadOutputDataBit), (18 bytes).
    Removing stm32f10x_gpio.o(i.GPIO_StructInit), (16 bytes).
    Removing stm32f10x_gpio.o(i.GPIO_Write), (4 bytes).
    Removing stm32f10x_gpio.o(i.GPIO_WriteBit), (10 bytes).
    Removing stm32f10x_rcc.o(i.RCC_AHBPeriphClockCmd), (32 bytes).
    Removing stm32f10x_rcc.o(i.RCC_AdjustHSICalibrationValue), (24 bytes).
    Removing stm32f10x_rcc.o(i.RCC_BackupResetCmd), (12 bytes).
    Removing stm32f10x_rcc.o(i.RCC_ClearFlag), (20 bytes).
    Removing stm32f10x_rcc.o(i.RCC_ClearITPendingBit), (12 bytes).
    Removing stm32f10x_rcc.o(i.RCC_ClockSecuritySystemCmd), (12 bytes).
    Removing stm32f10x_rcc.o(i.RCC_DeInit), (76 bytes).
    Removing stm32f10x_rcc.o(i.RCC_GetFlagStatus), (60 bytes).
    Removing stm32f10x_rcc.o(i.RCC_GetITStatus), (24 bytes).
    Removing stm32f10x_rcc.o(i.RCC_GetSYSCLKSource), (16 bytes).
    Removing stm32f10x_rcc.o(i.RCC_HCLKConfig), (24 bytes).
    Removing stm32f10x_rcc.o(i.RCC_HSEConfig), (76 bytes).
    Removing stm32f10x_rcc.o(i.RCC_HSICmd), (12 bytes).
    Removing stm32f10x_rcc.o(i.RCC_ITConfig), (32 bytes).
    Removing stm32f10x_rcc.o(i.RCC_LSEConfig), (52 bytes).
    Removing stm32f10x_rcc.o(i.RCC_LSICmd), (12 bytes).
    Removing stm32f10x_rcc.o(i.RCC_MCOConfig), (12 bytes).
    Removing stm32f10x_rcc.o(i.RCC_PCLK1Config), (24 bytes).
    Removing stm32f10x_rcc.o(i.RCC_PCLK2Config), (24 bytes).
    Removing stm32f10x_rcc.o(i.RCC_PLLCmd), (12 bytes).
    Removing stm32f10x_rcc.o(i.RCC_PLLConfig), (28 bytes).
    Removing stm32f10x_rcc.o(i.RCC_RTCCLKCmd), (12 bytes).
    Removing stm32f10x_rcc.o(i.RCC_RTCCLKConfig), (16 bytes).
    Removing stm32f10x_rcc.o(i.RCC_SYSCLKConfig), (24 bytes).
    Removing stm32f10x_rcc.o(i.RCC_USBCLKConfig), (12 bytes).
    Removing stm32f10x_rcc.o(i.RCC_WaitForHSEStartUp), (58 bytes).
    Removing stm32f10x_usart.o(i.USART_ClearFlag), (18 bytes).
    Removing stm32f10x_usart.o(i.USART_ClockInit), (34 bytes).
    Removing stm32f10x_usart.o(i.USART_ClockStructInit), (12 bytes).
    Removing stm32f10x_usart.o(i.USART_DMACmd), (18 bytes).
    Removing stm32f10x_usart.o(i.USART_DeInit), (156 bytes).
    Removing stm32f10x_usart.o(i.USART_HalfDuplexCmd), (24 bytes).
    Removing stm32f10x_usart.o(i.USART_IrDACmd), (24 bytes).
    Removing stm32f10x_usart.o(i.USART_IrDAConfig), (18 bytes).
    Removing stm32f10x_usart.o(i.USART_LINBreakDetectLengthConfig), (18 bytes).
    Removing stm32f10x_usart.o(i.USART_LINCmd), (24 bytes).
    Removing stm32f10x_usart.o(i.USART_OneBitMethodCmd), (24 bytes).
    Removing stm32f10x_usart.o(i.USART_OverSampling8Cmd), (22 bytes).
    Removing stm32f10x_usart.o(i.USART_ReceiverWakeUpCmd), (24 bytes).
    Removing stm32f10x_usart.o(i.USART_SendBreak), (10 bytes).
    Removing stm32f10x_usart.o(i.USART_SetAddress), (18 bytes).
    Removing stm32f10x_usart.o(i.USART_SetGuardTime), (16 bytes).
    Removing stm32f10x_usart.o(i.USART_SetPrescaler), (16 bytes).
    Removing stm32f10x_usart.o(i.USART_SmartCardCmd), (24 bytes).
    Removing stm32f10x_usart.o(i.USART_SmartCardNACKCmd), (24 bytes).
    Removing stm32f10x_usart.o(i.USART_StructInit), (24 bytes).
    Removing stm32f10x_usart.o(i.USART_WakeUpConfig), (18 bytes).
    Removing stm32f10x_i2c.o(i.I2C_ARPCmd), (24 bytes).
    Removing stm32f10x_i2c.o(i.I2C_AcknowledgeConfig), (24 bytes).
    Removing stm32f10x_i2c.o(i.I2C_CalculatePEC), (24 bytes).
    Removing stm32f10x_i2c.o(i.I2C_CheckEvent), (42 bytes).
    Removing stm32f10x_i2c.o(i.I2C_ClearFlag), (12 bytes).
    Removing stm32f10x_i2c.o(i.I2C_ClearITPendingBit), (12 bytes).
    Removing stm32f10x_i2c.o(i.I2C_Cmd), (24 bytes).
    Removing stm32f10x_i2c.o(i.I2C_DMACmd), (24 bytes).
    Removing stm32f10x_i2c.o(i.I2C_DMALastTransferCmd), (24 bytes).
    Removing stm32f10x_i2c.o(i.I2C_DeInit), (56 bytes).
    Removing stm32f10x_i2c.o(i.I2C_DualAddressCmd), (24 bytes).
    Removing stm32f10x_i2c.o(i.I2C_FastModeDutyCycleConfig), (28 bytes).
    Removing stm32f10x_i2c.o(i.I2C_GeneralCallCmd), (24 bytes).
    Removing stm32f10x_i2c.o(i.I2C_GenerateSTART), (24 bytes).
    Removing stm32f10x_i2c.o(i.I2C_GenerateSTOP), (24 bytes).
    Removing stm32f10x_i2c.o(i.I2C_GetFlagStatus), (58 bytes).
    Removing stm32f10x_i2c.o(i.I2C_GetITStatus), (38 bytes).
    Removing stm32f10x_i2c.o(i.I2C_GetLastEvent), (26 bytes).
    Removing stm32f10x_i2c.o(i.I2C_GetPEC), (8 bytes).
    Removing stm32f10x_i2c.o(i.I2C_ITConfig), (18 bytes).
    Removing stm32f10x_i2c.o(i.I2C_Init), (236 bytes).
    Removing stm32f10x_i2c.o(i.I2C_NACKPositionConfig), (28 bytes).
    Removing stm32f10x_i2c.o(i.I2C_OwnAddress2Config), (22 bytes).
    Removing stm32f10x_i2c.o(i.I2C_PECPositionConfig), (28 bytes).
    Removing stm32f10x_i2c.o(i.I2C_ReadRegister), (22 bytes).
    Removing stm32f10x_i2c.o(i.I2C_ReceiveData), (8 bytes).
    Removing stm32f10x_i2c.o(i.I2C_SMBusAlertConfig), (28 bytes).
    Removing stm32f10x_i2c.o(i.I2C_Send7bitAddress), (18 bytes).
    Removing stm32f10x_i2c.o(i.I2C_SendData), (4 bytes).
    Removing stm32f10x_i2c.o(i.I2C_SoftwareResetCmd), (22 bytes).
    Removing stm32f10x_i2c.o(i.I2C_StretchClockCmd), (24 bytes).
    Removing stm32f10x_i2c.o(i.I2C_StructInit), (30 bytes).
    Removing stm32f10x_i2c.o(i.I2C_TransmitPEC), (24 bytes).
    Removing stm32f10x_tim.o(i.TI1_Config), (128 bytes).
    Removing stm32f10x_tim.o(i.TI2_Config), (152 bytes).
    Removing stm32f10x_tim.o(i.TI3_Config), (144 bytes).
    Removing stm32f10x_tim.o(i.TI4_Config), (152 bytes).
    Removing stm32f10x_tim.o(i.TIM_ARRPreloadConfig), (24 bytes).
    Removing stm32f10x_tim.o(i.TIM_BDTRConfig), (32 bytes).
    Removing stm32f10x_tim.o(i.TIM_BDTRStructInit), (18 bytes).
    Removing stm32f10x_tim.o(i.TIM_CCPreloadControl), (24 bytes).
    Removing stm32f10x_tim.o(i.TIM_CCxCmd), (30 bytes).
    Removing stm32f10x_tim.o(i.TIM_CCxNCmd), (30 bytes).
    Removing stm32f10x_tim.o(i.TIM_ClearOC1Ref), (18 bytes).
    Removing stm32f10x_tim.o(i.TIM_ClearOC2Ref), (24 bytes).
    Removing stm32f10x_tim.o(i.TIM_ClearOC3Ref), (18 bytes).
    Removing stm32f10x_tim.o(i.TIM_ClearOC4Ref), (24 bytes).
    Removing stm32f10x_tim.o(i.TIM_CounterModeConfig), (18 bytes).
    Removing stm32f10x_tim.o(i.TIM_CtrlPWMOutputs), (30 bytes).
    Removing stm32f10x_tim.o(i.TIM_DMACmd), (18 bytes).
    Removing stm32f10x_tim.o(i.TIM_DMAConfig), (10 bytes).
    Removing stm32f10x_tim.o(i.TIM_ETRClockMode1Config), (54 bytes).
    Removing stm32f10x_tim.o(i.TIM_ETRClockMode2Config), (32 bytes).
    Removing stm32f10x_tim.o(i.TIM_ETRConfig), (28 bytes).
    Removing stm32f10x_tim.o(i.TIM_EncoderInterfaceConfig), (66 bytes).
    Removing stm32f10x_tim.o(i.TIM_ForcedOC1Config), (18 bytes).
    Removing stm32f10x_tim.o(i.TIM_ForcedOC2Config), (26 bytes).
    Removing stm32f10x_tim.o(i.TIM_ForcedOC3Config), (18 bytes).
    Removing stm32f10x_tim.o(i.TIM_ForcedOC4Config), (26 bytes).
    Removing stm32f10x_tim.o(i.TIM_GenerateEvent), (4 bytes).
    Removing stm32f10x_tim.o(i.TIM_GetCapture2), (6 bytes).
    Removing stm32f10x_tim.o(i.TIM_GetCapture3), (6 bytes).
    Removing stm32f10x_tim.o(i.TIM_GetCapture4), (8 bytes).
    Removing stm32f10x_tim.o(i.TIM_GetFlagStatus), (18 bytes).
    Removing stm32f10x_tim.o(i.TIM_GetPrescaler), (6 bytes).
    Removing stm32f10x_tim.o(i.TIM_ICInit), (172 bytes).
    Removing stm32f10x_tim.o(i.TIM_ICStructInit), (18 bytes).
    Removing stm32f10x_tim.o(i.TIM_ITRxExternalClockConfig), (24 bytes).
    Removing stm32f10x_tim.o(i.TIM_InternalClockConfig), (12 bytes).
    Removing stm32f10x_tim.o(i.TIM_OC1FastConfig), (18 bytes).
    Removing stm32f10x_tim.o(i.TIM_OC1Init), (152 bytes).
    Removing stm32f10x_tim.o(i.TIM_OC1NPolarityConfig), (18 bytes).
    Removing stm32f10x_tim.o(i.TIM_OC1PolarityConfig), (18 bytes).
    Removing stm32f10x_tim.o(i.TIM_OC1PreloadConfig), (18 bytes).
    Removing stm32f10x_tim.o(i.TIM_OC2FastConfig), (26 bytes).
    Removing stm32f10x_tim.o(i.TIM_OC2Init), (164 bytes).
    Removing stm32f10x_tim.o(i.TIM_OC2NPolarityConfig), (26 bytes).
    Removing stm32f10x_tim.o(i.TIM_OC2PolarityConfig), (26 bytes).
    Removing stm32f10x_tim.o(i.TIM_OC2PreloadConfig), (26 bytes).
    Removing stm32f10x_tim.o(i.TIM_OC3FastConfig), (18 bytes).
    Removing stm32f10x_tim.o(i.TIM_OC3NPolarityConfig), (26 bytes).
    Removing stm32f10x_tim.o(i.TIM_OC3PolarityConfig), (26 bytes).
    Removing stm32f10x_tim.o(i.TIM_OC3PreloadConfig), (18 bytes).
    Removing stm32f10x_tim.o(i.TIM_OC4FastConfig), (26 bytes).
    Removing stm32f10x_tim.o(i.TIM_OC4Init), (124 bytes).
    Removing stm32f10x_tim.o(i.TIM_OC4PolarityConfig), (26 bytes).
    Removing stm32f10x_tim.o(i.TIM_OC4PreloadConfig), (26 bytes).
    Removing stm32f10x_tim.o(i.TIM_OCStructInit), (20 bytes).
    Removing stm32f10x_tim.o(i.TIM_PWMIConfig), (124 bytes).
    Removing stm32f10x_tim.o(i.TIM_PrescalerConfig), (6 bytes).
    Removing stm32f10x_tim.o(i.TIM_SelectCCDMA), (24 bytes).
    Removing stm32f10x_tim.o(i.TIM_SelectCOM), (24 bytes).
    Removing stm32f10x_tim.o(i.TIM_SelectHallSensor), (24 bytes).
    Removing stm32f10x_tim.o(i.TIM_SelectInputTrigger), (18 bytes).
    Removing stm32f10x_tim.o(i.TIM_SelectMasterSlaveMode), (18 bytes).
    Removing stm32f10x_tim.o(i.TIM_SelectOCxM), (82 bytes).
    Removing stm32f10x_tim.o(i.TIM_SelectOnePulseMode), (18 bytes).
    Removing stm32f10x_tim.o(i.TIM_SelectOutputTrigger), (18 bytes).
    Removing stm32f10x_tim.o(i.TIM_SelectSlaveMode), (18 bytes).
    Removing stm32f10x_tim.o(i.TIM_SetAutoreload), (4 bytes).
    Removing stm32f10x_tim.o(i.TIM_SetClockDivision), (18 bytes).
    Removing stm32f10x_tim.o(i.TIM_SetCompare2), (4 bytes).
    Removing stm32f10x_tim.o(i.TIM_SetCompare4), (6 bytes).
    Removing stm32f10x_tim.o(i.TIM_SetCounter), (4 bytes).
    Removing stm32f10x_tim.o(i.TIM_SetIC1Prescaler), (18 bytes).
    Removing stm32f10x_tim.o(i.TIM_SetIC2Prescaler), (26 bytes).
    Removing stm32f10x_tim.o(i.TIM_SetIC3Prescaler), (18 bytes).
    Removing stm32f10x_tim.o(i.TIM_SetIC4Prescaler), (26 bytes).
    Removing stm32f10x_tim.o(i.TIM_TIxExternalClockConfig), (62 bytes).
    Removing stm32f10x_tim.o(i.TIM_TimeBaseStructInit), (18 bytes).
    Removing stm32f10x_tim.o(i.TIM_UpdateDisableConfig), (24 bytes).
    Removing stm32f10x_tim.o(i.TIM_UpdateRequestConfig), (24 bytes).
    Removing stm32f10x_adc.o(i.ADC_AnalogWatchdogCmd), (20 bytes).
    Removing stm32f10x_adc.o(i.ADC_AnalogWatchdogSingleChannelConfig), (16 bytes).
    Removing stm32f10x_adc.o(i.ADC_AnalogWatchdogThresholdsConfig), (6 bytes).
    Removing stm32f10x_adc.o(i.ADC_AutoInjectedConvCmd), (22 bytes).
    Removing stm32f10x_adc.o(i.ADC_ClearFlag), (6 bytes).
    Removing stm32f10x_adc.o(i.ADC_ClearITPendingBit), (10 bytes).
    Removing stm32f10x_adc.o(i.ADC_DMACmd), (22 bytes).
    Removing stm32f10x_adc.o(i.ADC_DeInit), (92 bytes).
    Removing stm32f10x_adc.o(i.ADC_DiscModeChannelCountConfig), (24 bytes).
    Removing stm32f10x_adc.o(i.ADC_DiscModeCmd), (22 bytes).
    Removing stm32f10x_adc.o(i.ADC_ExternalTrigConvCmd), (22 bytes).
    Removing stm32f10x_adc.o(i.ADC_ExternalTrigInjectedConvCmd), (22 bytes).
    Removing stm32f10x_adc.o(i.ADC_ExternalTrigInjectedConvConfig), (16 bytes).
    Removing stm32f10x_adc.o(i.ADC_GetDualModeConversionValue), (12 bytes).
    Removing stm32f10x_adc.o(i.ADC_GetFlagStatus), (18 bytes).
    Removing stm32f10x_adc.o(i.ADC_GetITStatus), (36 bytes).
    Removing stm32f10x_adc.o(i.ADC_GetInjectedConversionValue), (28 bytes).
    Removing stm32f10x_adc.o(i.ADC_GetSoftwareStartConvStatus), (20 bytes).
    Removing stm32f10x_adc.o(i.ADC_GetSoftwareStartInjectedConvCmdStatus), (20 bytes).
    Removing stm32f10x_adc.o(i.ADC_ITConfig), (24 bytes).
    Removing stm32f10x_adc.o(i.ADC_InjectedChannelConfig), (130 bytes).
    Removing stm32f10x_adc.o(i.ADC_InjectedDiscModeCmd), (22 bytes).
    Removing stm32f10x_adc.o(i.ADC_InjectedSequencerLengthConfig), (24 bytes).
    Removing stm32f10x_adc.o(i.ADC_SetInjectedOffset), (20 bytes).
    Removing stm32f10x_adc.o(i.ADC_SoftwareStartInjectedConvCmd), (22 bytes).
    Removing stm32f10x_adc.o(i.ADC_StructInit), (18 bytes).
    Removing stm32f10x_adc.o(i.ADC_TempSensorVrefintCmd), (36 bytes).
    Removing stm32f10x_sdio.o(i.SDIO_CEATAITCmd), (16 bytes).
    Removing stm32f10x_sdio.o(i.SDIO_ClearFlag), (12 bytes).
    Removing stm32f10x_sdio.o(i.SDIO_ClearITPendingBit), (12 bytes).
    Removing stm32f10x_sdio.o(i.SDIO_ClockCmd), (12 bytes).
    Removing stm32f10x_sdio.o(i.SDIO_CmdStructInit), (14 bytes).
    Removing stm32f10x_sdio.o(i.SDIO_CommandCompletionCmd), (12 bytes).
    Removing stm32f10x_sdio.o(i.SDIO_DMACmd), (12 bytes).
    Removing stm32f10x_sdio.o(i.SDIO_DataConfig), (48 bytes).
    Removing stm32f10x_sdio.o(i.SDIO_DataStructInit), (20 bytes).
    Removing stm32f10x_sdio.o(i.SDIO_DeInit), (36 bytes).
    Removing stm32f10x_sdio.o(i.SDIO_GetCommandResponse), (12 bytes).
    Removing stm32f10x_sdio.o(i.SDIO_GetDataCounter), (12 bytes).
    Removing stm32f10x_sdio.o(i.SDIO_GetFIFOCount), (12 bytes).
    Removing stm32f10x_sdio.o(i.SDIO_GetFlagStatus), (24 bytes).
    Removing stm32f10x_sdio.o(i.SDIO_GetITStatus), (24 bytes).
    Removing stm32f10x_sdio.o(i.SDIO_GetPowerState), (16 bytes).
    Removing stm32f10x_sdio.o(i.SDIO_GetResponse), (24 bytes).
    Removing stm32f10x_sdio.o(i.SDIO_ITConfig), (32 bytes).
    Removing stm32f10x_sdio.o(i.SDIO_Init), (48 bytes).
    Removing stm32f10x_sdio.o(i.SDIO_ReadData), (12 bytes).
    Removing stm32f10x_sdio.o(i.SDIO_SendCEATACmd), (12 bytes).
    Removing stm32f10x_sdio.o(i.SDIO_SendCommand), (44 bytes).
    Removing stm32f10x_sdio.o(i.SDIO_SendSDIOSuspendCmd), (12 bytes).
    Removing stm32f10x_sdio.o(i.SDIO_SetPowerState), (28 bytes).
    Removing stm32f10x_sdio.o(i.SDIO_SetSDIOOperation), (12 bytes).
    Removing stm32f10x_sdio.o(i.SDIO_SetSDIOReadWaitMode), (12 bytes).
    Removing stm32f10x_sdio.o(i.SDIO_StartSDIOReadWait), (12 bytes).
    Removing stm32f10x_sdio.o(i.SDIO_StopSDIOReadWait), (12 bytes).
    Removing stm32f10x_sdio.o(i.SDIO_StructInit), (16 bytes).
    Removing stm32f10x_sdio.o(i.SDIO_WriteData), (12 bytes).
    Removing stm32f10x_iwdg.o(i.IWDG_GetFlagStatus), (24 bytes).
    Removing stm32f10x_dac.o(i.DAC_Cmd), (40 bytes).
    Removing stm32f10x_dac.o(i.DAC_DMACmd), (44 bytes).
    Removing stm32f10x_dac.o(i.DAC_DeInit), (22 bytes).
    Removing stm32f10x_dac.o(i.DAC_DualSoftwareTriggerCmd), (36 bytes).
    Removing stm32f10x_dac.o(i.DAC_GetDataOutputValue), (36 bytes).
    Removing stm32f10x_dac.o(i.DAC_Init), (52 bytes).
    Removing stm32f10x_dac.o(i.DAC_SetChannel1Data), (32 bytes).
    Removing stm32f10x_dac.o(i.DAC_SetChannel2Data), (32 bytes).
    Removing stm32f10x_dac.o(i.DAC_SetDualChannelData), (36 bytes).
    Removing stm32f10x_dac.o(i.DAC_SoftwareTriggerCmd), (44 bytes).
    Removing stm32f10x_dac.o(i.DAC_StructInit), (12 bytes).
    Removing stm32f10x_dac.o(i.DAC_WaveGenerationCmd), (40 bytes).
    Removing stm32f10x_spi.o(i.I2S_Cmd), (24 bytes).
    Removing stm32f10x_spi.o(i.I2S_Init), (232 bytes).
    Removing stm32f10x_spi.o(i.I2S_StructInit), (20 bytes).
    Removing stm32f10x_spi.o(i.SPI_BiDirectionalLineConfig), (28 bytes).
    Removing stm32f10x_spi.o(i.SPI_CalculateCRC), (24 bytes).
    Removing stm32f10x_spi.o(i.SPI_Cmd), (24 bytes).
    Removing stm32f10x_spi.o(i.SPI_DataSizeConfig), (18 bytes).
    Removing stm32f10x_spi.o(i.SPI_GetCRC), (16 bytes).
    Removing stm32f10x_spi.o(i.SPI_GetCRCPolynomial), (6 bytes).
    Removing stm32f10x_spi.o(i.SPI_I2S_ClearFlag), (6 bytes).
    Removing stm32f10x_spi.o(i.SPI_I2S_ClearITPendingBit), (20 bytes).
    Removing stm32f10x_spi.o(i.SPI_I2S_DMACmd), (18 bytes).
    Removing stm32f10x_spi.o(i.SPI_I2S_DeInit), (88 bytes).
    Removing stm32f10x_spi.o(i.SPI_I2S_GetFlagStatus), (18 bytes).
    Removing stm32f10x_spi.o(i.SPI_I2S_GetITStatus), (52 bytes).
    Removing stm32f10x_spi.o(i.SPI_I2S_ITConfig), (32 bytes).
    Removing stm32f10x_spi.o(i.SPI_I2S_ReceiveData), (6 bytes).
    Removing stm32f10x_spi.o(i.SPI_I2S_SendData), (4 bytes).
    Removing stm32f10x_spi.o(i.SPI_Init), (60 bytes).
    Removing stm32f10x_spi.o(i.SPI_NSSInternalSoftwareConfig), (30 bytes).
    Removing stm32f10x_spi.o(i.SPI_SSOutputCmd), (24 bytes).
    Removing stm32f10x_spi.o(i.SPI_StructInit), (24 bytes).
    Removing stm32f10x_spi.o(i.SPI_TransmitCRC), (10 bytes).
    Removing stm32f10x_exti.o(i.EXTI_ClearFlag), (12 bytes).
    Removing stm32f10x_exti.o(i.EXTI_ClearITPendingBit), (12 bytes).
    Removing stm32f10x_exti.o(i.EXTI_DeInit), (36 bytes).
    Removing stm32f10x_exti.o(i.EXTI_GenerateSWInterrupt), (16 bytes).
    Removing stm32f10x_exti.o(i.EXTI_GetFlagStatus), (24 bytes).
    Removing stm32f10x_exti.o(i.EXTI_GetITStatus), (40 bytes).
    Removing stm32f10x_exti.o(i.EXTI_Init), (148 bytes).
    Removing stm32f10x_exti.o(i.EXTI_StructInit), (16 bytes).
    Removing core_cm3.o(.emb_text), (32 bytes).
    Removing system_stm32f10x.o(i.SystemCoreClockUpdate), (164 bytes).
    Removing system_stm32f10x.o(.data), (20 bytes).
    Removing stm32f10x_it.o(i.PendSV_Handler), (2 bytes).
    Removing startup_stm32f10x_hd.o(HEAP), (512 bytes).
    Removing cpu_c.o(i.CPU_BitBandClr), (68 bytes).
    Removing cpu_c.o(i.CPU_BitBandSet), (68 bytes).
    Removing cpu_c.o(i.CPU_IntSrcDis), (248 bytes).
    Removing cpu_c.o(i.CPU_IntSrcEn), (248 bytes).
    Removing cpu_c.o(i.CPU_IntSrcPrioGet), (332 bytes).
    Removing cpu_c.o(i.CPU_IntSrcPrioSet), (380 bytes).
    Removing cpu_a.o(.text), (42 bytes).
    Removing lib_ascii.o(i.ASCII_Cmp), (74 bytes).
    Removing lib_ascii.o(i.ASCII_IsAlnum), (76 bytes).
    Removing lib_ascii.o(i.ASCII_IsAlpha), (48 bytes).
    Removing lib_ascii.o(i.ASCII_IsBlank), (20 bytes).
    Removing lib_ascii.o(i.ASCII_IsCtrl), (26 bytes).
    Removing lib_ascii.o(i.ASCII_IsDig), (20 bytes).
    Removing lib_ascii.o(i.ASCII_IsDigHex), (36 bytes).
    Removing lib_ascii.o(i.ASCII_IsDigOct), (20 bytes).
    Removing lib_ascii.o(i.ASCII_IsGraph), (20 bytes).
    Removing lib_ascii.o(i.ASCII_IsLower), (20 bytes).
    Removing lib_ascii.o(i.ASCII_IsPrint), (20 bytes).
    Removing lib_ascii.o(i.ASCII_IsPunct), (134 bytes).
    Removing lib_ascii.o(i.ASCII_IsSpace), (36 bytes).
    Removing lib_ascii.o(i.ASCII_IsUpper), (20 bytes).
    Removing lib_ascii.o(i.ASCII_ToLower), (32 bytes).
    Removing lib_ascii.o(i.ASCII_ToUpper), (32 bytes).
    Removing lib_mem.o(i.Mem_Clr), (18 bytes).
    Removing lib_mem.o(i.Mem_Cmp), (196 bytes).
    Removing lib_mem.o(i.Mem_Copy), (140 bytes).
    Removing lib_mem.o(i.Mem_Init), (2 bytes).
    Removing lib_mem.o(i.Mem_Set), (110 bytes).
    Removing lib_str.o(i.Str_Cat), (24 bytes).
    Removing lib_str.o(i.Str_Cat_N), (84 bytes).
    Removing lib_str.o(i.Str_Char), (24 bytes).
    Removing lib_str.o(i.Str_Char_Last), (52 bytes).
    Removing lib_str.o(i.Str_Char_N), (60 bytes).
    Removing lib_str.o(i.Str_Cmp), (24 bytes).
    Removing lib_str.o(i.Str_CmpIgnoreCase), (24 bytes).
    Removing lib_str.o(i.Str_CmpIgnoreCase_N), (380 bytes).
    Removing lib_str.o(i.Str_Cmp_N), (138 bytes).
    Removing lib_str.o(i.Str_Copy), (24 bytes).
    Removing lib_str.o(i.Str_Copy_N), (66 bytes).
    Removing lib_str.o(i.Str_FmtNbr_Int32), (208 bytes).
    Removing lib_str.o(i.Str_FmtNbr_Int32S), (62 bytes).
    Removing lib_str.o(i.Str_FmtNbr_Int32U), (46 bytes).
    Removing lib_str.o(i.Str_Len), (20 bytes).
    Removing lib_str.o(i.Str_ParseNbr_Int32), (612 bytes).
    Removing lib_str.o(i.Str_ParseNbr_Int32S), (74 bytes).
    Removing lib_str.o(i.Str_ParseNbr_Int32U), (30 bytes).
    Removing lib_str.o(i.Str_Str), (126 bytes).
    Removing lib_str.o(.constdata), (148 bytes).
    Removing os_cpu_c.o(i.OSTaskDelHook), (2 bytes).
    Removing os_dbg.o(.constdata), (2 bytes).
    Removing os_core.o(i.OSSchedLock), (64 bytes).
    Removing os_core.o(i.OSSchedUnlock), (96 bytes).
    Removing os_core.o(i.OSStatInit), (76 bytes).
    Removing os_core.o(i.OSVersion), (6 bytes).
    Removing os_core.o(i.OS_Dummy), (2 bytes).
    Removing os_core.o(i.OS_MemCopy), (20 bytes).
    Removing os_task.o(i.OSTaskChangePrio), (292 bytes).
    Removing os_task.o(i.OSTaskDel), (328 bytes).
    Removing os_task.o(i.OSTaskDelReq), (120 bytes).
    Removing os_task.o(i.OSTaskNameGet), (160 bytes).
    Removing os_task.o(i.OSTaskQuery), (108 bytes).
    Removing os_task.o(i.OSTaskResume), (172 bytes).
    Removing os_time.o(i.OSTimeDlyHMSM), (164 bytes).
    Removing os_time.o(i.OSTimeDlyResume), (172 bytes).
    Removing os_time.o(i.OSTimeGet), (28 bytes).
    Removing os_time.o(i.OSTimeSet), (28 bytes).
    Removing spi_msd0_driver.o(i.MSD0_GetCardInfo), (716 bytes).
    Removing spi_msd0_driver.o(i.MSD0_Init), (592 bytes).
    Removing spi_msd0_driver.o(i.MSD0_ReadMultiBlock), (128 bytes).
    Removing spi_msd0_driver.o(i.MSD0_ReadSingleBlock), (68 bytes).
    Removing spi_msd0_driver.o(i.MSD0_SPIHighSpeed), (88 bytes).
    Removing spi_msd0_driver.o(i.MSD0_SPI_Configuration), (128 bytes).
    Removing spi_msd0_driver.o(i.MSD0_WriteMultiBlock), (280 bytes).
    Removing spi_msd0_driver.o(i.MSD0_WriteSingleBlock), (200 bytes).
    Removing spi_msd0_driver.o(i.MSD0_read_buffer), (128 bytes).
    Removing spi_msd0_driver.o(i.MSD0_send_command), (124 bytes).
    Removing spi_msd0_driver.o(i.MSD0_send_command_hold), (112 bytes).
    Removing spi_msd0_driver.o(.bss), (88 bytes).
    Removing fatfs.o(i.SD_Mem), (48 bytes).
    Removing fatfs.o(i.SD_TotalSize), (188 bytes).
    Removing fatfs.o(i.SD_Wr), (540 bytes).
    Removing fatfs.o(i.fputc), (48 bytes).
    Removing fatfs.o(i.scan_files), (232 bytes).
    Removing fatfs.o(.bss), (6008 bytes).
    Removing fatfs.o(.data), (580 bytes).
    Removing diskio.o(i.disk_initialize), (52 bytes).
    Removing diskio.o(i.disk_ioctl), (168 bytes).
    Removing diskio.o(i.disk_read), (90 bytes).
    Removing diskio.o(i.disk_status), (30 bytes).
    Removing diskio.o(i.disk_write), (90 bytes).
    Removing diskio.o(i.get_fattime), (60 bytes).
    Removing ff.o(i.check_fs), (144 bytes).
    Removing ff.o(i.chk_chr), (20 bytes).
    Removing ff.o(i.chk_mounted), (916 bytes).
    Removing ff.o(i.clust2sect), (26 bytes).
    Removing ff.o(i.cmp_lfn), (144 bytes).
    Removing ff.o(i.create_chain), (202 bytes).
    Removing ff.o(i.create_name), (560 bytes).
    Removing ff.o(i.dir_find), (222 bytes).
    Removing ff.o(i.dir_next), (280 bytes).
    Removing ff.o(i.dir_read), (190 bytes).
    Removing ff.o(i.dir_register), (396 bytes).
    Removing ff.o(i.dir_remove), (96 bytes).
    Removing ff.o(i.dir_sdi), (156 bytes).
    Removing ff.o(i.f_chmod), (92 bytes).
    Removing ff.o(i.f_close), (22 bytes).
    Removing ff.o(i.f_getfree), (276 bytes).
    Removing ff.o(i.f_lseek), (432 bytes).
    Removing ff.o(i.f_mkdir), (392 bytes).
    Removing ff.o(i.f_mount), (44 bytes).
    Removing ff.o(i.f_open), (372 bytes).
    Removing ff.o(i.f_opendir), (120 bytes).
    Removing ff.o(i.f_read), (462 bytes).
    Removing ff.o(i.f_readdir), (96 bytes).
    Removing ff.o(i.f_rename), (300 bytes).
    Removing ff.o(i.f_stat), (68 bytes).
    Removing ff.o(i.f_sync), (184 bytes).
    Removing ff.o(i.f_truncate), (156 bytes).
    Removing ff.o(i.f_unlink), (188 bytes).
    Removing ff.o(i.f_utime), (96 bytes).
    Removing ff.o(i.f_write), (526 bytes).
    Removing ff.o(i.fit_lfn), (128 bytes).
    Removing ff.o(i.follow_path), (158 bytes).
    Removing ff.o(i.gen_numname), (168 bytes).
    Removing ff.o(i.get_fat), (228 bytes).
    Removing ff.o(i.get_fileinfo), (296 bytes).
    Removing ff.o(i.mem_cmp), (38 bytes).
    Removing ff.o(i.mem_cpy), (26 bytes).
    Removing ff.o(i.mem_set), (20 bytes).
    Removing ff.o(i.move_window), (114 bytes).
    Removing ff.o(i.pick_lfn), (116 bytes).
    Removing ff.o(i.put_fat), (310 bytes).
    Removing ff.o(i.remove_chain), (104 bytes).
    Removing ff.o(i.sum_sfn), (32 bytes).
    Removing ff.o(i.sync), (202 bytes).
    Removing ff.o(i.validate), (42 bytes).
    Removing ff.o(.bss), (512 bytes).
    Removing ff.o(.constdata), (141 bytes).
    Removing ff.o(.data), (6 bytes).
    Removing ccsbcs.o(i.ff_convert), (76 bytes).
    Removing ccsbcs.o(i.ff_wtoupper), (56 bytes).
    Removing ccsbcs.o(.constdata), (1216 bytes).
    Removing ffixi.o(.text), (50 bytes).
    Removing ffixui.o(.text), (40 bytes).
    Removing dfixul.o(.text), (48 bytes).
    Removing cdrcmple.o(.text), (48 bytes).
    Removing spi_msd0_driver.o(i.MSD0_spi_read_write), (44 bytes).

456 unused section(s) (total 45656 bytes) removed from the image.

==============================================================================

Image Symbol Table

    Local Symbols

    Symbol Name                              Value     Ov Type        Size  Object(Section)

    ../clib/microlib/division.c              0x00000000   Number         0  uldiv.o ABSOLUTE
    ../clib/microlib/division.c              0x00000000   Number         0  uidiv.o ABSOLUTE
    ../clib/microlib/errno.c                 0x00000000   Number         0  errno.o ABSOLUTE
    ../clib/microlib/init/entry.s            0x00000000   Number         0  entry8a.o ABSOLUTE
    ../clib/microlib/init/entry.s            0x00000000   Number         0  entry7b.o ABSOLUTE
    ../clib/microlib/init/entry.s            0x00000000   Number         0  entry8b.o ABSOLUTE
    ../clib/microlib/init/entry.s            0x00000000   Number         0  entry9b.o ABSOLUTE
    ../clib/microlib/init/entry.s            0x00000000   Number         0  entry12a.o ABSOLUTE
    ../clib/microlib/init/entry.s            0x00000000   Number         0  entry11a.o ABSOLUTE
    ../clib/microlib/init/entry.s            0x00000000   Number         0  entry12b.o ABSOLUTE
    ../clib/microlib/init/entry.s            0x00000000   Number         0  entry11b.o ABSOLUTE
    ../clib/microlib/init/entry.s            0x00000000   Number         0  entry.o ABSOLUTE
    ../clib/microlib/init/entry.s            0x00000000   Number         0  entry10a.o ABSOLUTE
    ../clib/microlib/init/entry.s            0x00000000   Number         0  entry9a.o ABSOLUTE
    ../clib/microlib/init/entry.s            0x00000000   Number         0  entry10b.o ABSOLUTE
    ../clib/microlib/init/entry.s            0x00000000   Number         0  entry2.o ABSOLUTE
    ../clib/microlib/init/entry.s            0x00000000   Number         0  entry5.o ABSOLUTE
    ../clib/microlib/init/entry.s            0x00000000   Number         0  entry7a.o ABSOLUTE
    ../clib/microlib/longlong.c              0x00000000   Number         0  llshl.o ABSOLUTE
    ../clib/microlib/longlong.c              0x00000000   Number         0  llsshr.o ABSOLUTE
    ../clib/microlib/longlong.c              0x00000000   Number         0  llushr.o ABSOLUTE
    ../clib/microlib/printf/printf.c         0x00000000   Number         0  printf7.o ABSOLUTE
    ../clib/microlib/printf/printf.c         0x00000000   Number         0  printf6.o ABSOLUTE
    ../clib/microlib/printf/printf.c         0x00000000   Number         0  printf5.o ABSOLUTE
    ../clib/microlib/printf/printf.c         0x00000000   Number         0  printf4.o ABSOLUTE
    ../clib/microlib/printf/printf.c         0x00000000   Number         0  printf3.o ABSOLUTE
    ../clib/microlib/printf/printf.c         0x00000000   Number         0  printfa.o ABSOLUTE
    ../clib/microlib/printf/printf.c         0x00000000   Number         0  printf8.o ABSOLUTE
    ../clib/microlib/printf/printf.c         0x00000000   Number         0  printfb.o ABSOLUTE
    ../clib/microlib/printf/printf.c         0x00000000   Number         0  printf0.o ABSOLUTE
    ../clib/microlib/printf/printf.c         0x00000000   Number         0  printf1.o ABSOLUTE
    ../clib/microlib/printf/printf.c         0x00000000   Number         0  printf2.o ABSOLUTE
    ../clib/microlib/printf/stubs.s          0x00000000   Number         0  stubs.o ABSOLUTE
    ../clib/microlib/stdio/streams.c         0x00000000   Number         0  stdout.o ABSOLUTE
    ../clib/microlib/string/memcpy.c         0x00000000   Number         0  memcpya.o ABSOLUTE
    ../clib/microlib/string/memcpy.c         0x00000000   Number         0  memcpyb.o ABSOLUTE
    ../clib/microlib/string/memset.c         0x00000000   Number         0  memseta.o ABSOLUTE
    ../clib/microlib/string/strlen.c         0x00000000   Number         0  strlen.o ABSOLUTE
    ../clib/microlib/stubs.s                 0x00000000   Number         0  iusefp.o ABSOLUTE
    ../fplib/microlib/d2f.c                  0x00000000   Number         0  d2f.o ABSOLUTE
    ../fplib/microlib/f2d.c                  0x00000000   Number         0  f2d.o ABSOLUTE
    ../fplib/microlib/fpadd.c                0x00000000   Number         0  fadd.o ABSOLUTE
    ../fplib/microlib/fpadd.c                0x00000000   Number         0  dadd.o ABSOLUTE
    ../fplib/microlib/fpdiv.c                0x00000000   Number         0  fdiv.o ABSOLUTE
    ../fplib/microlib/fpdiv.c                0x00000000   Number         0  ddiv.o ABSOLUTE
    ../fplib/microlib/fpepilogue.c           0x00000000   Number         0  depilogue.o ABSOLUTE
    ../fplib/microlib/fpepilogue.c           0x00000000   Number         0  fepilogue.o ABSOLUTE
    ../fplib/microlib/fpfix.c                0x00000000   Number         0  dfixul.o ABSOLUTE
    ../fplib/microlib/fpfix.c                0x00000000   Number         0  dfixui.o ABSOLUTE
    ../fplib/microlib/fpfix.c                0x00000000   Number         0  dfixi.o ABSOLUTE
    ../fplib/microlib/fpfix.c                0x00000000   Number         0  ffixui.o ABSOLUTE
    ../fplib/microlib/fpfix.c                0x00000000   Number         0  ffixi.o ABSOLUTE
    ../fplib/microlib/fpflt.c                0x00000000   Number         0  dflti.o ABSOLUTE
    ../fplib/microlib/fpflt.c                0x00000000   Number         0  ffltl.o ABSOLUTE
    ../fplib/microlib/fpflt.c                0x00000000   Number         0  ffltui.o ABSOLUTE
    ../fplib/microlib/fpflt.c                0x00000000   Number         0  fflti.o ABSOLUTE
    ../fplib/microlib/fpflt.c                0x00000000   Number         0  dfltl.o ABSOLUTE
    ../fplib/microlib/fpflt.c                0x00000000   Number         0  dfltui.o ABSOLUTE
    ../fplib/microlib/fpmul.c                0x00000000   Number         0  dmul.o ABSOLUTE
    ../fplib/microlib/fpmul.c                0x00000000   Number         0  fmul.o ABSOLUTE
    ../fplib/microlib/fpscalb.c              0x00000000   Number         0  dscalb.o ABSOLUTE
    ../mathlib/dunder.c                      0x00000000   Number         0  dunder.o ABSOLUTE
    ../mathlib/fpclassify.c                  0x00000000   Number         0  fpclassify.o ABSOLUTE
    ../mathlib/poly.c                        0x00000000   Number         0  poly.o ABSOLUTE
    ../mathlib/rred.c                        0x00000000   Number         0  rred.o ABSOLUTE
    ../mathlib/tan.c                         0x00000000   Number         0  tan_x.o ABSOLUTE
    ../mathlib/tan.c                         0x00000000   Number         0  tan.o ABSOLUTE
    ../mathlib/tan_i.c                       0x00000000   Number         0  tan_i_x.o ABSOLUTE
    ../mathlib/tan_i.c                       0x00000000   Number         0  tan_i.o ABSOLUTE
    ..\Lib\cmsis\core_cm3.c                  0x00000000   Number         0  core_cm3.o ABSOLUTE
    ..\Lib\cmsis\stm32f10x_it.c              0x00000000   Number         0  stm32f10x_it.o ABSOLUTE
    ..\Lib\cmsis\system_stm32f10x.c          0x00000000   Number         0  system_stm32f10x.o ABSOLUTE
    ..\Lib\src\misc.c                        0x00000000   Number         0  misc.o ABSOLUTE
    ..\Lib\src\stm32f10x_adc.c               0x00000000   Number         0  stm32f10x_adc.o ABSOLUTE
    ..\Lib\src\stm32f10x_dac.c               0x00000000   Number         0  stm32f10x_dac.o ABSOLUTE
    ..\Lib\src\stm32f10x_exti.c              0x00000000   Number         0  stm32f10x_exti.o ABSOLUTE
    ..\Lib\src\stm32f10x_gpio.c              0x00000000   Number         0  stm32f10x_gpio.o ABSOLUTE
    ..\Lib\src\stm32f10x_i2c.c               0x00000000   Number         0  stm32f10x_i2c.o ABSOLUTE
    ..\Lib\src\stm32f10x_iwdg.c              0x00000000   Number         0  stm32f10x_iwdg.o ABSOLUTE
    ..\Lib\src\stm32f10x_rcc.c               0x00000000   Number         0  stm32f10x_rcc.o ABSOLUTE
    ..\Lib\src\stm32f10x_sdio.c              0x00000000   Number         0  stm32f10x_sdio.o ABSOLUTE
    ..\Lib\src\stm32f10x_spi.c               0x00000000   Number         0  stm32f10x_spi.o ABSOLUTE
    ..\Lib\src\stm32f10x_tim.c               0x00000000   Number         0  stm32f10x_tim.o ABSOLUTE
    ..\Lib\src\stm32f10x_usart.c             0x00000000   Number         0  stm32f10x_usart.o ABSOLUTE
    ..\Lib\startup\arm\startup_stm32f10x_hd.s 0x00000000   Number         0  startup_stm32f10x_hd.o ABSOLUTE
    ..\User\ADC.c                            0x00000000   Number         0  adc.o ABSOLUTE
    ..\User\COM.c                            0x00000000   Number         0  com.o ABSOLUTE
    ..\User\CRC.c                            0x00000000   Number         0  crc.o ABSOLUTE
    ..\User\Calc.c                           0x00000000   Number         0  calc.o ABSOLUTE
    ..\User\Delay_IO_NVIC_Init.c             0x00000000   Number         0  delay_io_nvic_init.o ABSOLUTE
    ..\User\Disp.c                           0x00000000   Number         0  disp.o ABSOLUTE
    ..\User\FATFS_V0.09\src\diskio.c         0x00000000   Number         0  diskio.o ABSOLUTE
    ..\User\FATFS_V0.09\src\ff.c             0x00000000   Number         0  ff.o ABSOLUTE
    ..\User\FATFS_V0.09\src\option\ccsbcs.c  0x00000000   Number         0  ccsbcs.o ABSOLUTE
    ..\User\FM25CL64.c                       0x00000000   Number         0  fm25cl64.o ABSOLUTE
    ..\User\FlowMeterHandle.c                0x00000000   Number         0  flowmeterhandle.o ABSOLUTE
    ..\User\ModBusProtocol.c                 0x00000000   Number         0  modbusprotocol.o ABSOLUTE
    ..\User\PTU5X.c                          0x00000000   Number         0  ptu5x.o ABSOLUTE
    ..\User\Relay.c                          0x00000000   Number         0  relay.o ABSOLUTE
    ..\User\SPI_SD_Card\FATFS.c              0x00000000   Number         0  fatfs.o ABSOLUTE
    ..\User\SPI_SD_Card\SPI_MSD0_Driver.c    0x00000000   Number         0  spi_msd0_driver.o ABSOLUTE
    ..\User\Timer.c                          0x00000000   Number         0  timer.o ABSOLUTE
    ..\User\main.c                           0x00000000   Number         0  main.o ABSOLUTE
    ..\User\memory.c                         0x00000000   Number         0  memory.o ABSOLUTE
    ..\User\pcf8563.c                        0x00000000   Number         0  pcf8563.o ABSOLUTE
    ..\\Lib\\cmsis\\core_cm3.c               0x00000000   Number         0  core_cm3.o ABSOLUTE
    ..\uC-CPU\cpu_a.asm                      0x00000000   Number         0  cpu_a.o ABSOLUTE
    ..\uC-CPU\cpu_c.c                        0x00000000   Number         0  cpu_c.o ABSOLUTE
    ..\uC-LIB\lib_ascii.c                    0x00000000   Number         0  lib_ascii.o ABSOLUTE
    ..\uC-LIB\lib_mem.c                      0x00000000   Number         0  lib_mem.o ABSOLUTE
    ..\uC-LIB\lib_str.c                      0x00000000   Number         0  lib_str.o ABSOLUTE
    ..\uCOS-II\Ports\os_cpu_a.asm            0x00000000   Number         0  os_cpu_a.o ABSOLUTE
    ..\uCOS-II\Ports\os_cpu_c.c              0x00000000   Number         0  os_cpu_c.o ABSOLUTE
    ..\uCOS-II\Ports\os_dbg.c                0x00000000   Number         0  os_dbg.o ABSOLUTE
    ..\uCOS-II\Source\os_core.c              0x00000000   Number         0  os_core.o ABSOLUTE
    ..\uCOS-II\Source\os_flag.c              0x00000000   Number         0  os_flag.o ABSOLUTE
    ..\uCOS-II\Source\os_mbox.c              0x00000000   Number         0  os_mbox.o ABSOLUTE
    ..\uCOS-II\Source\os_mem.c               0x00000000   Number         0  os_mem.o ABSOLUTE
    ..\uCOS-II\Source\os_mutex.c             0x00000000   Number         0  os_mutex.o ABSOLUTE
    ..\uCOS-II\Source\os_q.c                 0x00000000   Number         0  os_q.o ABSOLUTE
    ..\uCOS-II\Source\os_sem.c               0x00000000   Number         0  os_sem.o ABSOLUTE
    ..\uCOS-II\Source\os_task.c              0x00000000   Number         0  os_task.o ABSOLUTE
    ..\uCOS-II\Source\os_time.c              0x00000000   Number         0  os_time.o ABSOLUTE
    ..\uCOS-II\Source\os_tmr.c               0x00000000   Number         0  os_tmr.o ABSOLUTE
    cdrcmple.s                               0x00000000   Number         0  cdrcmple.o ABSOLUTE
    cfcmple.s                                0x00000000   Number         0  cfcmple.o ABSOLUTE
    cfrcmple.s                               0x00000000   Number         0  cfrcmple.o ABSOLUTE
    dc.s                                     0x00000000   Number         0  dc.o ABSOLUTE
    handlers.s                               0x00000000   Number         0  handlers.o ABSOLUTE
    init.s                                   0x00000000   Number         0  init.o ABSOLUTE
    RESET                                    0x08000000   Section      304  startup_stm32f10x_hd.o(RESET)
    .ARM.Collect$$$$00000000                 0x08000130   Section        0  entry.o(.ARM.Collect$$$$00000000)
    .ARM.Collect$$$$00000001                 0x08000130   Section        4  entry2.o(.ARM.Collect$$$$00000001)
    .ARM.Collect$$$$00000004                 0x08000134   Section        4  entry5.o(.ARM.Collect$$$$00000004)
    .ARM.Collect$$$$00000008                 0x08000138   Section        0  entry7b.o(.ARM.Collect$$$$00000008)
    .ARM.Collect$$$$0000000A                 0x08000138   Section        0  entry8b.o(.ARM.Collect$$$$0000000A)
    .ARM.Collect$$$$0000000B                 0x08000138   Section        8  entry9a.o(.ARM.Collect$$$$0000000B)
    .ARM.Collect$$$$0000000E                 0x08000140   Section        4  entry12b.o(.ARM.Collect$$$$0000000E)
    .ARM.Collect$$$$0000000F                 0x08000144   Section        0  entry10a.o(.ARM.Collect$$$$0000000F)
    .ARM.Collect$$$$00000011                 0x08000144   Section        0  entry11a.o(.ARM.Collect$$$$00000011)
    .ARM.Collect$$$$00002712                 0x08000144   Section        4  entry2.o(.ARM.Collect$$$$00002712)
    __lit__00000000                          0x08000144   Data           4  entry2.o(.ARM.Collect$$$$00002712)
    .text                                    0x08000148   Section       36  startup_stm32f10x_hd.o(.text)
    .text                                    0x0800016c   Section      164  os_cpu_a.o(.text)
    .text                                    0x08000210   Section        0  memcpya.o(.text)
    .text                                    0x08000234   Section        0  memseta.o(.text)
    .text                                    0x08000258   Section        0  fadd.o(.text)
    .text                                    0x08000308   Section        0  fmul.o(.text)
    .text                                    0x0800036c   Section        0  fdiv.o(.text)
    .text                                    0x080003e8   Section        0  dadd.o(.text)
    .text                                    0x08000536   Section        0  dmul.o(.text)
    .text                                    0x0800061a   Section        0  ddiv.o(.text)
    .text                                    0x080006f8   Section        0  fflti.o(.text)
    .text                                    0x0800070a   Section        0  ffltui.o(.text)
    .text                                    0x08000714   Section        0  ffltl.o(.text)
    .text                                    0x08000740   Section        0  dflti.o(.text)
    .text                                    0x08000762   Section        0  dfltui.o(.text)
    .text                                    0x0800077c   Section        0  dfltl.o(.text)
    .text                                    0x080007a4   Section        0  dfixi.o(.text)
    .text                                    0x080007e2   Section        0  dfixui.o(.text)
    .text                                    0x08000814   Section        0  f2d.o(.text)
    .text                                    0x0800083a   Section        0  d2f.o(.text)
    .text                                    0x08000874   Section       20  cfcmple.o(.text)
    .text                                    0x08000888   Section       20  cfrcmple.o(.text)
    .text                                    0x0800089c   Section        0  llshl.o(.text)
    .text                                    0x080008ba   Section        0  llushr.o(.text)
    .text                                    0x080008da   Section        0  llsshr.o(.text)
    .text                                    0x080008fe   Section        0  iusefp.o(.text)
    .text                                    0x080008fe   Section        0  fepilogue.o(.text)
    .text                                    0x0800096c   Section        0  depilogue.o(.text)
    .text                                    0x08000a28   Section       36  init.o(.text)
    .text                                    0x08000a4c   Section        0  dscalb.o(.text)
    i.ADC1Init                               0x08000a7c   Section        0  adc.o(i.ADC1Init)
    i.ADC_Cmd                                0x08000aec   Section        0  stm32f10x_adc.o(i.ADC_Cmd)
    i.ADC_GetCalibrationStatus               0x08000b02   Section        0  stm32f10x_adc.o(i.ADC_GetCalibrationStatus)
    i.ADC_GetConversionValue                 0x08000b16   Section        0  stm32f10x_adc.o(i.ADC_GetConversionValue)
    i.ADC_GetResetCalibrationStatus          0x08000b1e   Section        0  stm32f10x_adc.o(i.ADC_GetResetCalibrationStatus)
    i.ADC_Init                               0x08000b34   Section        0  stm32f10x_adc.o(i.ADC_Init)
    i.ADC_RegularChannelConfig               0x08000b84   Section        0  stm32f10x_adc.o(i.ADC_RegularChannelConfig)
    i.ADC_ResetCalibration                   0x08000c3c   Section        0  stm32f10x_adc.o(i.ADC_ResetCalibration)
    i.ADC_SoftwareStartConvCmd               0x08000c46   Section        0  stm32f10x_adc.o(i.ADC_SoftwareStartConvCmd)
    i.ADC_StartCalibration                   0x08000c5c   Section        0  stm32f10x_adc.o(i.ADC_StartCalibration)
    i.Ack_I2c                                0x08000c68   Section        0  pcf8563.o(i.Ack_I2c)
    Ack_I2c                                  0x08000c69   Thumb Code   102  pcf8563.o(i.Ack_I2c)
    i.AnalogRTC                              0x08000cd4   Section        0  main.o(i.AnalogRTC)
    i.AppTaskCreate                          0x08000d0c   Section        0  main.o(i.AppTaskCreate)
    i.BusFault_Handler                       0x08000db0   Section        0  stm32f10x_it.o(i.BusFault_Handler)
    i.COM1Init                               0x08000db4   Section        0  com.o(i.COM1Init)
    i.COM2Init                               0x08000e0c   Section        0  com.o(i.COM2Init)
    i.COM2_SendRecProcess                    0x08000e64   Section        0  flowmeterhandle.o(i.COM2_SendRecProcess)
    i.COM3Init                               0x08000eec   Section        0  com.o(i.COM3Init)
    i.COM4Init                               0x08000f94   Section        0  com.o(i.COM4Init)
    i.CRCReplace                             0x08000fe0   Section        0  ptu5x.o(i.CRCReplace)
    i.CalCRC16                               0x08001000   Section        0  crc.o(i.CalCRC16)
    i.CalFlowQRatio                          0x0800103c   Section        0  calc.o(i.CalFlowQRatio)
    i.CalFlowRatio                           0x08001088   Section        0  calc.o(i.CalFlowRatio)
    i.CalHeatQRatio                          0x080011d4   Section        0  calc.o(i.CalHeatQRatio)
    i.CalRatio                               0x0800121c   Section        0  calc.o(i.CalRatio)
    i.ChToFloat                              0x0800122c   Section        0  modbusprotocol.o(i.ChToFloat)
    i.ChToINT16                              0x08001248   Section        0  modbusprotocol.o(i.ChToINT16)
    i.DateChange                             0x08001258   Section        0  calc.o(i.DateChange)
    i.DebugMon_Handler                       0x08001390   Section        0  stm32f10x_it.o(i.DebugMon_Handler)
    i.Delayms                                0x08001392   Section        0  delay_io_nvic_init.o(i.Delayms)
    i.Delayus                                0x080013aa   Section        0  delay_io_nvic_init.o(i.Delayus)
    i.Disp                                   0x080013dc   Section        0  disp.o(i.Disp)
    i.DispBackCheck                          0x08001528   Section        0  disp.o(i.DispBackCheck)
    i.Disp_SendArr                           0x080015a4   Section        0  disp.o(i.Disp_SendArr)
    i.Disp_SendData                          0x080015d0   Section        0  disp.o(i.Disp_SendData)
    i.Disp_WrFloat                           0x080015f0   Section        0  disp.o(i.Disp_WrFloat)
    i.Disp_WrInt                             0x08001658   Section        0  disp.o(i.Disp_WrInt)
    i.Disp_WrRtc                             0x080016c8   Section        0  disp.o(i.Disp_WrRtc)
    i.EventRecord                            0x080017a8   Section        0  calc.o(i.EventRecord)
    i.FM_Rec                                 0x08001ab8   Section        0  fm25cl64.o(i.FM_Rec)
    i.FM_Send                                0x08001af8   Section        0  fm25cl64.o(i.FM_Send)
    i.FloatToCh                              0x08001b44   Section        0  modbusprotocol.o(i.FloatToCh)
    i.GPIO_Init                              0x08001b5c   Section        0  stm32f10x_gpio.o(i.GPIO_Init)
    i.GPIO_ReadInputDataBit                  0x08001c72   Section        0  stm32f10x_gpio.o(i.GPIO_ReadInputDataBit)
    i.GPIO_ResetBits                         0x08001c84   Section        0  stm32f10x_gpio.o(i.GPIO_ResetBits)
    i.GPIO_SetBits                           0x08001c88   Section        0  stm32f10x_gpio.o(i.GPIO_SetBits)
    i.GetUstcDis2                            0x08001c8c   Section        0  ptu5x.o(i.GetUstcDis2)
    i.GetUstcToPC                            0x08001d28   Section        0  ptu5x.o(i.GetUstcToPC)
    i.GetVin                                 0x08001e18   Section        0  adc.o(i.GetVin)
    i.Get_JTAG_ID                            0x08001e50   Section        0  main.o(i.Get_JTAG_ID)
    i.HardFault_Handler                      0x08001e88   Section        0  stm32f10x_it.o(i.HardFault_Handler)
    i.HighPstDis                             0x08001e8c   Section        0  disp.o(i.HighPstDis)
    i.INT16ToCh                              0x08002050   Section        0  modbusprotocol.o(i.INT16ToCh)
    i.IO_Init                                0x0800205c   Section        0  delay_io_nvic_init.o(i.IO_Init)
    i.IWDG_Enable                            0x080021dc   Section        0  stm32f10x_iwdg.o(i.IWDG_Enable)
    i.IWDG_ReloadCounter                     0x080021ec   Section        0  stm32f10x_iwdg.o(i.IWDG_ReloadCounter)
    i.IWDG_Reset                             0x080021fc   Section        0  delay_io_nvic_init.o(i.IWDG_Reset)
    i.IWDG_SetPrescaler                      0x0800221c   Section        0  stm32f10x_iwdg.o(i.IWDG_SetPrescaler)
    i.IWDG_SetReload                         0x08002228   Section        0  stm32f10x_iwdg.o(i.IWDG_SetReload)
    i.IWDG_WriteAccessCmd                    0x08002234   Section        0  stm32f10x_iwdg.o(i.IWDG_WriteAccessCmd)
    i.MbRegRead                              0x08002240   Section        0  modbusprotocol.o(i.MbRegRead)
    i.MemManage_Handler                      0x08002e04   Section        0  stm32f10x_it.o(i.MemManage_Handler)
    i.NMI_Handler                            0x08002e08   Section        0  stm32f10x_it.o(i.NMI_Handler)
    i.NVIC_Configuration                     0x08002e0a   Section        0  delay_io_nvic_init.o(i.NVIC_Configuration)
    i.NVIC_Init                              0x08002eac   Section        0  misc.o(i.NVIC_Init)
    i.NVIC_PriorityGroupConfig               0x08002f1c   Section        0  misc.o(i.NVIC_PriorityGroupConfig)
    i.OSInit                                 0x08002f30   Section        0  os_core.o(i.OSInit)
    i.OSInitHookBegin                        0x08002f54   Section        0  os_cpu_c.o(i.OSInitHookBegin)
    i.OSInitHookEnd                          0x08002f56   Section        0  os_cpu_c.o(i.OSInitHookEnd)
    i.OSIntEnter                             0x08002f58   Section        0  os_core.o(i.OSIntEnter)
    i.OSIntExit                              0x08002f7c   Section        0  os_core.o(i.OSIntExit)
    i.OSStart                                0x0800300c   Section        0  os_core.o(i.OSStart)
    i.OSTCBInitHook                          0x08003054   Section        0  os_cpu_c.o(i.OSTCBInitHook)
    i.OSTaskCreate                           0x08003058   Section        0  os_task.o(i.OSTaskCreate)
    i.OSTaskCreateExt                        0x08003104   Section        0  os_task.o(i.OSTaskCreateExt)
    i.OSTaskCreateHook                       0x080031c4   Section        0  os_cpu_c.o(i.OSTaskCreateHook)
    i.OSTaskIdleHook                         0x080031c6   Section        0  os_cpu_c.o(i.OSTaskIdleHook)
    i.OSTaskNameSet                          0x080031c8   Section        0  os_task.o(i.OSTaskNameSet)
    i.OSTaskStatHook                         0x08003274   Section        0  os_cpu_c.o(i.OSTaskStatHook)
    i.OSTaskStkChk                           0x08003278   Section        0  os_task.o(i.OSTaskStkChk)
    i.OSTaskStkInit                          0x08003318   Section        0  os_cpu_c.o(i.OSTaskStkInit)
    i.OSTaskSuspend                          0x080033b4   Section        0  os_task.o(i.OSTaskSuspend)
    i.OSTaskSwHook                           0x0800346c   Section        0  os_cpu_c.o(i.OSTaskSwHook)
    i.OSTimeDly                              0x08003470   Section        0  os_time.o(i.OSTimeDly)
    i.OSTimeTick                             0x080034e0   Section        0  os_core.o(i.OSTimeTick)
    i.OSTimeTickHook                         0x080035c0   Section        0  os_cpu_c.o(i.OSTimeTickHook)
    i.OS_InitEventList                       0x080035c2   Section        0  os_core.o(i.OS_InitEventList)
    OS_InitEventList                         0x080035c3   Thumb Code     2  os_core.o(i.OS_InitEventList)
    i.OS_InitMisc                            0x080035c4   Section        0  os_core.o(i.OS_InitMisc)
    OS_InitMisc                              0x080035c5   Thumb Code    44  os_core.o(i.OS_InitMisc)
    i.OS_InitRdyList                         0x08003618   Section        0  os_core.o(i.OS_InitRdyList)
    OS_InitRdyList                           0x08003619   Thumb Code    46  os_core.o(i.OS_InitRdyList)
    i.OS_InitTCBList                         0x08003660   Section        0  os_core.o(i.OS_InitTCBList)
    OS_InitTCBList                           0x08003661   Thumb Code    86  os_core.o(i.OS_InitTCBList)
    i.OS_InitTaskIdle                        0x080036c8   Section        0  os_core.o(i.OS_InitTaskIdle)
    OS_InitTaskIdle                          0x080036c9   Thumb Code    50  os_core.o(i.OS_InitTaskIdle)
    i.OS_InitTaskStat                        0x08003718   Section        0  os_core.o(i.OS_InitTaskStat)
    OS_InitTaskStat                          0x08003719   Thumb Code    50  os_core.o(i.OS_InitTaskStat)
    i.OS_MemClr                              0x08003768   Section        0  os_core.o(i.OS_MemClr)
    i.OS_Sched                               0x0800377c   Section        0  os_core.o(i.OS_Sched)
    i.OS_SchedNew                            0x080037f0   Section        0  os_core.o(i.OS_SchedNew)
    OS_SchedNew                              0x080037f1   Thumb Code    26  os_core.o(i.OS_SchedNew)
    i.OS_StrCopy                             0x0800381c   Section        0  os_core.o(i.OS_StrCopy)
    i.OS_StrLen                              0x08003838   Section        0  os_core.o(i.OS_StrLen)
    i.OS_TCBInit                             0x0800384c   Section        0  os_core.o(i.OS_TCBInit)
    i.OS_TaskIdle                            0x08003960   Section        0  os_core.o(i.OS_TaskIdle)
    i.OS_TaskStat                            0x08003984   Section        0  os_core.o(i.OS_TaskStat)
    i.OS_TaskStatStkChk                      0x08003a0c   Section        0  os_core.o(i.OS_TaskStatStkChk)
    i.OS_TaskStkClr                          0x08003a48   Section        0  os_task.o(i.OS_TaskStkClr)
    i.Out4_20mA                              0x08003a64   Section        0  timer.o(i.Out4_20mA)
    i.PowerDetection                         0x08003b20   Section        0  main.o(i.PowerDetection)
    i.PowerDownEvent                         0x08003b74   Section        0  calc.o(i.PowerDownEvent)
    i.RCC_ADCCLKConfig                       0x08003bf8   Section        0  stm32f10x_rcc.o(i.RCC_ADCCLKConfig)
    i.RCC_APB1PeriphClockCmd                 0x08003c10   Section        0  stm32f10x_rcc.o(i.RCC_APB1PeriphClockCmd)
    i.RCC_APB1PeriphResetCmd                 0x08003c30   Section        0  stm32f10x_rcc.o(i.RCC_APB1PeriphResetCmd)
    i.RCC_APB2PeriphClockCmd                 0x08003c50   Section        0  stm32f10x_rcc.o(i.RCC_APB2PeriphClockCmd)
    i.RCC_APB2PeriphResetCmd                 0x08003c70   Section        0  stm32f10x_rcc.o(i.RCC_APB2PeriphResetCmd)
    i.RCC_GetClocksFreq                      0x08003c90   Section        0  stm32f10x_rcc.o(i.RCC_GetClocksFreq)
    i.RcvByte                                0x08003d64   Section        0  pcf8563.o(i.RcvByte)
    RcvByte                                  0x08003d65   Thumb Code   142  pcf8563.o(i.RcvByte)
    i.ReadCfg                                0x08003df8   Section        0  memory.o(i.ReadCfg)
    i.ReadFM                                 0x08003ee8   Section        0  fm25cl64.o(i.ReadFM)
    i.ReadHisP                               0x08003f38   Section        0  memory.o(i.ReadHisP)
    i.ReadPCF8563                            0x08003fdc   Section        0  pcf8563.o(i.ReadPCF8563)
    i.ReadPar                                0x0800404c   Section        0  memory.o(i.ReadPar)
    i.ReadRunTime                            0x08004064   Section        0  memory.o(i.ReadRunTime)
    i.ReadSumFlowQ                           0x080040e0   Section        0  memory.o(i.ReadSumFlowQ)
    i.ReadSumHeatQ                           0x08004160   Section        0  memory.o(i.ReadSumHeatQ)
    i.ReadTime                               0x080041e0   Section        0  pcf8563.o(i.ReadTime)
    i.Read_Ret                               0x080042d8   Section        0  modbusprotocol.o(i.Read_Ret)
    i.RelayTask                              0x08004324   Section        0  relay.o(i.RelayTask)
    i.RxDataAnalyze                          0x0800442c   Section        0  disp.o(i.RxDataAnalyze)
    i.SVC_Handler                            0x080045fc   Section        0  stm32f10x_it.o(i.SVC_Handler)
    i.SendByte                               0x08004600   Section        0  pcf8563.o(i.SendByte)
    SendByte                                 0x08004601   Thumb Code   194  pcf8563.o(i.SendByte)
    i.SetIuA                                 0x080046cc   Section        0  timer.o(i.SetIuA)
    i.SetSysClock                            0x080046f0   Section        0  system_stm32f10x.o(i.SetSysClock)
    SetSysClock                              0x080046f1   Thumb Code     8  system_stm32f10x.o(i.SetSysClock)
    i.SetSysClockTo24                        0x080046f8   Section        0  system_stm32f10x.o(i.SetSysClockTo24)
    SetSysClockTo24                          0x080046f9   Thumb Code   208  system_stm32f10x.o(i.SetSysClockTo24)
    i.Start_I2c                              0x080047d0   Section        0  pcf8563.o(i.Start_I2c)
    Start_I2c                                0x080047d1   Thumb Code   114  pcf8563.o(i.Start_I2c)
    i.Stop_I2c                               0x08004848   Section        0  pcf8563.o(i.Stop_I2c)
    Stop_I2c                                 0x08004849   Thumb Code    88  pcf8563.o(i.Stop_I2c)
    i.SysTick_Handler                        0x080048a4   Section        0  stm32f10x_it.o(i.SysTick_Handler)
    i.SysTick_init                           0x080048b4   Section        0  main.o(i.SysTick_init)
    i.SystemInit                             0x08004918   Section        0  system_stm32f10x.o(i.SystemInit)
    i.TIM3Init                               0x08004978   Section        0  timer.o(i.TIM3Init)
    i.TIM4Init                               0x080049e0   Section        0  timer.o(i.TIM4Init)
    i.TIM4_IRQHandler                        0x08004a28   Section        0  timer.o(i.TIM4_IRQHandler)
    i.TIM_ClearFlag                          0x08004ad0   Section        0  stm32f10x_tim.o(i.TIM_ClearFlag)
    i.TIM_ClearITPendingBit                  0x08004ad6   Section        0  stm32f10x_tim.o(i.TIM_ClearITPendingBit)
    i.TIM_Cmd                                0x08004adc   Section        0  stm32f10x_tim.o(i.TIM_Cmd)
    i.TIM_DeInit                             0x08004af4   Section        0  stm32f10x_tim.o(i.TIM_DeInit)
    i.TIM_GetCapture1                        0x08004cdc   Section        0  stm32f10x_tim.o(i.TIM_GetCapture1)
    i.TIM_GetCounter                         0x08004ce2   Section        0  stm32f10x_tim.o(i.TIM_GetCounter)
    i.TIM_GetITStatus                        0x08004ce8   Section        0  stm32f10x_tim.o(i.TIM_GetITStatus)
    i.TIM_ITConfig                           0x08004d0a   Section        0  stm32f10x_tim.o(i.TIM_ITConfig)
    i.TIM_OC3Init                            0x08004d1c   Section        0  stm32f10x_tim.o(i.TIM_OC3Init)
    i.TIM_SetCompare1                        0x08004dbc   Section        0  stm32f10x_tim.o(i.TIM_SetCompare1)
    i.TIM_SetCompare3                        0x08004dc0   Section        0  stm32f10x_tim.o(i.TIM_SetCompare3)
    i.TIM_TimeBaseInit                       0x08004dc4   Section        0  stm32f10x_tim.o(i.TIM_TimeBaseInit)
    i.Task0                                  0x08004e68   Section        0  main.o(i.Task0)
    i.Task1                                  0x08004f04   Section        0  main.o(i.Task1)
    i.Task2                                  0x08004f1c   Section        0  main.o(i.Task2)
    i.Task3                                  0x08004f58   Section        0  main.o(i.Task3)
    i.Task4                                  0x08005014   Section        0  main.o(i.Task4)
    i.Task5                                  0x0800508c   Section        0  main.o(i.Task5)
    i.Task6                                  0x0800509c   Section        0  main.o(i.Task6)
    i.Task7                                  0x080050ac   Section        0  main.o(i.Task7)
    i.Tx2Send                                0x080050c4   Section        0  com.o(i.Tx2Send)
    i.Tx3Send                                0x080050f4   Section        0  com.o(i.Tx3Send)
    i.UART4_IRQHandler                       0x08005144   Section        0  com.o(i.UART4_IRQHandler)
    i.USART1_IRQHandler                      0x0800520c   Section        0  com.o(i.USART1_IRQHandler)
    i.USART2_IRQHandler                      0x080052e4   Section        0  com.o(i.USART2_IRQHandler)
    i.USART3_IRQHandler                      0x080053b8   Section        0  com.o(i.USART3_IRQHandler)
    i.USART_ClearITPendingBit                0x080054a8   Section        0  stm32f10x_usart.o(i.USART_ClearITPendingBit)
    i.USART_Cmd                              0x080054c6   Section        0  stm32f10x_usart.o(i.USART_Cmd)
    i.USART_GetFlagStatus                    0x080054de   Section        0  stm32f10x_usart.o(i.USART_GetFlagStatus)
    i.USART_GetITStatus                      0x080054f8   Section        0  stm32f10x_usart.o(i.USART_GetITStatus)
    i.USART_ITConfig                         0x0800554c   Section        0  stm32f10x_usart.o(i.USART_ITConfig)
    i.USART_Init                             0x08005598   Section        0  stm32f10x_usart.o(i.USART_Init)
    i.USART_ReceiveData                      0x08005670   Section        0  stm32f10x_usart.o(i.USART_ReceiveData)
    i.USART_SendData                         0x0800567a   Section        0  stm32f10x_usart.o(i.USART_SendData)
    i.UsConfigSet                            0x08005682   Section        0  disp.o(i.UsConfigSet)
    i.UsDataSend                             0x08005694   Section        0  ptu5x.o(i.UsDataSend)
    i.UsageFault_Handler                     0x08005744   Section        0  stm32f10x_it.o(i.UsageFault_Handler)
    i.UstcComMirror                          0x08005748   Section        0  ptu5x.o(i.UstcComMirror)
    i.UstcDateUpdate                         0x08005818   Section        0  ptu5x.o(i.UstcDateUpdate)
    i.UstcWriteGolbal                        0x080058c0   Section        0  ptu5x.o(i.UstcWriteGolbal)
    i.WriteCfg                               0x080059a0   Section        0  memory.o(i.WriteCfg)
    i.WriteDayHis                            0x080059cc   Section        0  calc.o(i.WriteDayHis)
    i.WriteFM                                0x08005a50   Section        0  fm25cl64.o(i.WriteFM)
    i.WriteFMFill                            0x08005aa8   Section        0  fm25cl64.o(i.WriteFMFill)
    i.WriteHisP                              0x08005af8   Section        0  memory.o(i.WriteHisP)
    i.WriteMonHis                            0x08005b20   Section        0  calc.o(i.WriteMonHis)
    i.WritePCF8563                           0x08005ba4   Section        0  pcf8563.o(i.WritePCF8563)
    i.WritePar                               0x08005bfc   Section        0  memory.o(i.WritePar)
    i.WriteRunTime                           0x08005ca0   Section        0  memory.o(i.WriteRunTime)
    i.WriteSumFlowQ                          0x08005cc8   Section        0  memory.o(i.WriteSumFlowQ)
    i.WriteSumHeatQ                          0x08005cf0   Section        0  memory.o(i.WriteSumHeatQ)
    i.WriteTime                              0x08005d18   Section        0  pcf8563.o(i.WriteTime)
    i.WriteYearHis                           0x08005dfc   Section        0  calc.o(i.WriteYearHis)
    i.Write_Disable                          0x08005e80   Section        0  fm25cl64.o(i.Write_Disable)
    i.Write_Enable                           0x08005ea4   Section        0  fm25cl64.o(i.Write_Enable)
    i.Write_Ret                              0x08005ec8   Section        0  modbusprotocol.o(i.Write_Ret)
    i.__ARM_fpclassify                       0x08005f00   Section        0  fpclassify.o(i.__ARM_fpclassify)
    i.__ieee754_rem_pio2                     0x08005f28   Section        0  rred.o(i.__ieee754_rem_pio2)
    i.__kernel_poly                          0x080062b0   Section        0  poly.o(i.__kernel_poly)
    i.__kernel_tan                           0x0800635c   Section        0  tan_i.o(i.__kernel_tan)
    i.__mathlib_dbl_infnan                   0x080065d8   Section        0  dunder.o(i.__mathlib_dbl_infnan)
    i.__mathlib_dbl_invalid                  0x080065de   Section        0  dunder.o(i.__mathlib_dbl_invalid)
    i.__mathlib_dbl_underflow                0x080065ec   Section        0  dunder.o(i.__mathlib_dbl_underflow)
    i.__scatterload_copy                     0x080065fc   Section       14  handlers.o(i.__scatterload_copy)
    i.__scatterload_null                     0x0800660a   Section        2  handlers.o(i.__scatterload_null)
    i.__scatterload_zeroinit                 0x0800660c   Section       14  handlers.o(i.__scatterload_zeroinit)
    i.__set_errno                            0x0800661c   Section        0  errno.o(i.__set_errno)
    i.main                                   0x08006628   Section        0  main.o(i.main)
    i.tan                                    0x080066a4   Section        0  tan.o(i.tan)
    .constdata                               0x08006708   Section      512  crc.o(.constdata)
    .constdata                               0x08006908   Section      256  os_core.o(.constdata)
    .constdata                               0x08006a08   Section      200  rred.o(.constdata)
    pio2s                                    0x08006a08   Data          48  rred.o(.constdata)
    twooverpi                                0x08006a38   Data         152  rred.o(.constdata)
    .constdata                               0x08006ad0   Section       96  tan_i.o(.constdata)
    Todd                                     0x08006ad0   Data          48  tan_i.o(.constdata)
    Teven                                    0x08006b00   Data          48  tan_i.o(.constdata)
    .data                                    0x20000000   Section      144  main.o(.data)
    Scnt                                     0x2000008c   Data           2  main.o(.data)
    Old_ComCfg                               0x2000008e   Data           1  main.o(.data)
    SecFlag                                  0x2000008f   Data           1  main.o(.data)
    .data                                    0x20000090   Section        6  disp.o(.data)
    numhist                                  0x20000094   Data           2  disp.o(.data)
    .data                                    0x20000098   Section       18  calc.o(.data)
    DecimalPout                              0x200000a0   Data           4  calc.o(.data)
    UnderVoltageEvent                        0x200000a4   Data           1  calc.o(.data)
    SensorFaultEvent                         0x200000a5   Data           1  calc.o(.data)
    ReverseFlowEvent                         0x200000a6   Data           1  calc.o(.data)
    FlowQmaxEvent                            0x200000a7   Data           1  calc.o(.data)
    FlowQminEvent                            0x200000a8   Data           1  calc.o(.data)
    TempErrEvent                             0x200000a9   Data           1  calc.o(.data)
    .data                                    0x200000aa   Section        1  timer.o(.data)
    Flag                                     0x200000aa   Data           1  timer.o(.data)
    .data                                    0x200000ab   Section        1  pcf8563.o(.data)
    ack                                      0x200000ab   Data           1  pcf8563.o(.data)
    .data                                    0x200000ac   Section        1  ptu5x.o(.data)
    Rx3Num_history                           0x200000ac   Data           1  ptu5x.o(.data)
    .data                                    0x200000ad   Section       20  stm32f10x_rcc.o(.data)
    APBAHBPrescTable                         0x200000ad   Data          16  stm32f10x_rcc.o(.data)
    ADCPrescTable                            0x200000bd   Data           4  stm32f10x_rcc.o(.data)
    .data                                    0x200000c4   Section       56  os_core.o(.data)
    .data                                    0x200000fc   Section        4  errno.o(.data)
    _errno                                   0x200000fc   Data           4  errno.o(.data)
    .bss                                     0x20000100   Section    16224  main.o(.bss)
    Task0Stk                                 0x20000690   Data         800  main.o(.bss)
    Task1Stk                                 0x200009b0   Data        2000  main.o(.bss)
    Task2Stk                                 0x20001180   Data        2000  main.o(.bss)
    Task3Stk                                 0x20001950   Data        2000  main.o(.bss)
    Task4Stk                                 0x20002120   Data        2000  main.o(.bss)
    Task5Stk                                 0x200028f0   Data        2000  main.o(.bss)
    Task6Stk                                 0x200030c0   Data        2000  main.o(.bss)
    Task7Stk                                 0x20003890   Data        2000  main.o(.bss)
    .bss                                     0x20004060   Section      100  disp.o(.bss)
    .bss                                     0x200040c4   Section     2520  os_core.o(.bss)
    STACK                                    0x20004aa0   Section     1024  startup_stm32f10x_hd.o(STACK)

    Global Symbols

    Symbol Name                              Value     Ov Type        Size  Object(Section)

    BuildAttributes$$THM_ISAv4$P$D$K$B$S$PE$A:L22UL41UL21$X:L11$S22US41US21$IEEE1$IW$USESV6$~STKCKD$USESV7$~SHL$OTIME$ROPI$IEEEX$EBA8$MICROLIB$REQ8$PRES8$EABIv2 0x00000000   Number         0  anon$$obj.o ABSOLUTE
    __ARM_use_no_argv                        0x00000000   Number         0  main.o ABSOLUTE
    _printf_a                                0x00000000   Number         0  stubs.o ABSOLUTE
    _printf_c                                0x00000000   Number         0  stubs.o ABSOLUTE
    _printf_charcount                        0x00000000   Number         0  stubs.o ABSOLUTE
    _printf_d                                0x00000000   Number         0  stubs.o ABSOLUTE
    _printf_e                                0x00000000   Number         0  stubs.o ABSOLUTE
    _printf_f                                0x00000000   Number         0  stubs.o ABSOLUTE
    _printf_flags                            0x00000000   Number         0  stubs.o ABSOLUTE
    _printf_fp_dec                           0x00000000   Number         0  stubs.o ABSOLUTE
    _printf_fp_hex                           0x00000000   Number         0  stubs.o ABSOLUTE
    _printf_g                                0x00000000   Number         0  stubs.o ABSOLUTE
    _printf_i                                0x00000000   Number         0  stubs.o ABSOLUTE
    _printf_int_dec                          0x00000000   Number         0  stubs.o ABSOLUTE
    _printf_l                                0x00000000   Number         0  stubs.o ABSOLUTE
    _printf_lc                               0x00000000   Number         0  stubs.o ABSOLUTE
    _printf_ll                               0x00000000   Number         0  stubs.o ABSOLUTE
    _printf_lld                              0x00000000   Number         0  stubs.o ABSOLUTE
    _printf_lli                              0x00000000   Number         0  stubs.o ABSOLUTE
    _printf_llo                              0x00000000   Number         0  stubs.o ABSOLUTE
    _printf_llu                              0x00000000   Number         0  stubs.o ABSOLUTE
    _printf_llx                              0x00000000   Number         0  stubs.o ABSOLUTE
    _printf_longlong_dec                     0x00000000   Number         0  stubs.o ABSOLUTE
    _printf_longlong_hex                     0x00000000   Number         0  stubs.o ABSOLUTE
    _printf_longlong_oct                     0x00000000   Number         0  stubs.o ABSOLUTE
    _printf_ls                               0x00000000   Number         0  stubs.o ABSOLUTE
    _printf_mbtowc                           0x00000000   Number         0  stubs.o ABSOLUTE
    _printf_n                                0x00000000   Number         0  stubs.o ABSOLUTE
    _printf_o                                0x00000000   Number         0  stubs.o ABSOLUTE
    _printf_p                                0x00000000   Number         0  stubs.o ABSOLUTE
    _printf_percent                          0x00000000   Number         0  stubs.o ABSOLUTE
    _printf_pre_padding                      0x00000000   Number         0  stubs.o ABSOLUTE
    _printf_return_value                     0x00000000   Number         0  stubs.o ABSOLUTE
    _printf_s                                0x00000000   Number         0  stubs.o ABSOLUTE
    _printf_sizespec                         0x00000000   Number         0  stubs.o ABSOLUTE
    _printf_str                              0x00000000   Number         0  stubs.o ABSOLUTE
    _printf_truncate_signed                  0x00000000   Number         0  stubs.o ABSOLUTE
    _printf_truncate_unsigned                0x00000000   Number         0  stubs.o ABSOLUTE
    _printf_u                                0x00000000   Number         0  stubs.o ABSOLUTE
    _printf_wc                               0x00000000   Number         0  stubs.o ABSOLUTE
    _printf_wctomb                           0x00000000   Number         0  stubs.o ABSOLUTE
    _printf_widthprec                        0x00000000   Number         0  stubs.o ABSOLUTE
    _printf_x                                0x00000000   Number         0  stubs.o ABSOLUTE
    __arm_fini_                               - Undefined Weak Reference
    __cpp_initialize__aeabi_                  - Undefined Weak Reference
    __cxa_finalize                            - Undefined Weak Reference
    __decompress                              - Undefined Weak Reference
    _clock_init                               - Undefined Weak Reference
    _microlib_exit                            - Undefined Weak Reference
    __Vectors_Size                           0x00000130   Number         0  startup_stm32f10x_hd.o ABSOLUTE
    __Vectors                                0x08000000   Data           4  startup_stm32f10x_hd.o(RESET)
    __Vectors_End                            0x08000130   Data           0  startup_stm32f10x_hd.o(RESET)
    __main                                   0x08000131   Thumb Code     0  entry.o(.ARM.Collect$$$$00000000)
    _main_stk                                0x08000131   Thumb Code     0  entry2.o(.ARM.Collect$$$$00000001)
    _main_scatterload                        0x08000135   Thumb Code     0  entry5.o(.ARM.Collect$$$$00000004)
    __main_after_scatterload                 0x08000139   Thumb Code     0  entry5.o(.ARM.Collect$$$$00000004)
    _main_clock                              0x08000139   Thumb Code     0  entry7b.o(.ARM.Collect$$$$00000008)
    _main_cpp_init                           0x08000139   Thumb Code     0  entry8b.o(.ARM.Collect$$$$0000000A)
    _main_init                               0x08000139   Thumb Code     0  entry9a.o(.ARM.Collect$$$$0000000B)
    __rt_lib_shutdown_fini                   0x08000141   Thumb Code     0  entry12b.o(.ARM.Collect$$$$0000000E)
    __rt_final_cpp                           0x08000145   Thumb Code     0  entry10a.o(.ARM.Collect$$$$0000000F)
    __rt_final_exit                          0x08000145   Thumb Code     0  entry11a.o(.ARM.Collect$$$$00000011)
    Reset_Handler                            0x08000149   Thumb Code     8  startup_stm32f10x_hd.o(.text)
    ADC1_2_IRQHandler                        0x08000163   Thumb Code     0  startup_stm32f10x_hd.o(.text)
    ADC3_IRQHandler                          0x08000163   Thumb Code     0  startup_stm32f10x_hd.o(.text)
    CAN1_RX1_IRQHandler                      0x08000163   Thumb Code     0  startup_stm32f10x_hd.o(.text)
    CAN1_SCE_IRQHandler                      0x08000163   Thumb Code     0  startup_stm32f10x_hd.o(.text)
    DMA1_Channel1_IRQHandler                 0x08000163   Thumb Code     0  startup_stm32f10x_hd.o(.text)
    DMA1_Channel2_IRQHandler                 0x08000163   Thumb Code     0  startup_stm32f10x_hd.o(.text)
    DMA1_Channel3_IRQHandler                 0x08000163   Thumb Code     0  startup_stm32f10x_hd.o(.text)
    DMA1_Channel4_IRQHandler                 0x08000163   Thumb Code     0  startup_stm32f10x_hd.o(.text)
    DMA1_Channel5_IRQHandler                 0x08000163   Thumb Code     0  startup_stm32f10x_hd.o(.text)
    DMA1_Channel6_IRQHandler                 0x08000163   Thumb Code     0  startup_stm32f10x_hd.o(.text)
    DMA1_Channel7_IRQHandler                 0x08000163   Thumb Code     0  startup_stm32f10x_hd.o(.text)
    DMA2_Channel1_IRQHandler                 0x08000163   Thumb Code     0  startup_stm32f10x_hd.o(.text)
    DMA2_Channel2_IRQHandler                 0x08000163   Thumb Code     0  startup_stm32f10x_hd.o(.text)
    DMA2_Channel3_IRQHandler                 0x08000163   Thumb Code     0  startup_stm32f10x_hd.o(.text)
    DMA2_Channel4_5_IRQHandler               0x08000163   Thumb Code     0  startup_stm32f10x_hd.o(.text)
    EXTI0_IRQHandler                         0x08000163   Thumb Code     0  startup_stm32f10x_hd.o(.text)
    EXTI15_10_IRQHandler                     0x08000163   Thumb Code     0  startup_stm32f10x_hd.o(.text)
    EXTI1_IRQHandler                         0x08000163   Thumb Code     0  startup_stm32f10x_hd.o(.text)
    EXTI2_IRQHandler                         0x08000163   Thumb Code     0  startup_stm32f10x_hd.o(.text)
    EXTI3_IRQHandler                         0x08000163   Thumb Code     0  startup_stm32f10x_hd.o(.text)
    EXTI4_IRQHandler                         0x08000163   Thumb Code     0  startup_stm32f10x_hd.o(.text)
    EXTI9_5_IRQHandler                       0x08000163   Thumb Code     0  startup_stm32f10x_hd.o(.text)
    FLASH_IRQHandler                         0x08000163   Thumb Code     0  startup_stm32f10x_hd.o(.text)
    FSMC_IRQHandler                          0x08000163   Thumb Code     0  startup_stm32f10x_hd.o(.text)
    I2C1_ER_IRQHandler                       0x08000163   Thumb Code     0  startup_stm32f10x_hd.o(.text)
    I2C1_EV_IRQHandler                       0x08000163   Thumb Code     0  startup_stm32f10x_hd.o(.text)
    I2C2_ER_IRQHandler                       0x08000163   Thumb Code     0  startup_stm32f10x_hd.o(.text)
    I2C2_EV_IRQHandler                       0x08000163   Thumb Code     0  startup_stm32f10x_hd.o(.text)
    PVD_IRQHandler                           0x08000163   Thumb Code     0  startup_stm32f10x_hd.o(.text)
    RCC_IRQHandler                           0x08000163   Thumb Code     0  startup_stm32f10x_hd.o(.text)
    RTCAlarm_IRQHandler                      0x08000163   Thumb Code     0  startup_stm32f10x_hd.o(.text)
    RTC_IRQHandler                           0x08000163   Thumb Code     0  startup_stm32f10x_hd.o(.text)
    SDIO_IRQHandler                          0x08000163   Thumb Code     0  startup_stm32f10x_hd.o(.text)
    SPI1_IRQHandler                          0x08000163   Thumb Code     0  startup_stm32f10x_hd.o(.text)
    SPI2_IRQHandler                          0x08000163   Thumb Code     0  startup_stm32f10x_hd.o(.text)
    SPI3_IRQHandler                          0x08000163   Thumb Code     0  startup_stm32f10x_hd.o(.text)
    TAMPER_IRQHandler                        0x08000163   Thumb Code     0  startup_stm32f10x_hd.o(.text)
    TIM1_BRK_IRQHandler                      0x08000163   Thumb Code     0  startup_stm32f10x_hd.o(.text)
    TIM1_CC_IRQHandler                       0x08000163   Thumb Code     0  startup_stm32f10x_hd.o(.text)
    TIM1_TRG_COM_IRQHandler                  0x08000163   Thumb Code     0  startup_stm32f10x_hd.o(.text)
    TIM1_UP_IRQHandler                       0x08000163   Thumb Code     0  startup_stm32f10x_hd.o(.text)
    TIM2_IRQHandler                          0x08000163   Thumb Code     0  startup_stm32f10x_hd.o(.text)
    TIM3_IRQHandler                          0x08000163   Thumb Code     0  startup_stm32f10x_hd.o(.text)
    TIM5_IRQHandler                          0x08000163   Thumb Code     0  startup_stm32f10x_hd.o(.text)
    TIM6_IRQHandler                          0x08000163   Thumb Code     0  startup_stm32f10x_hd.o(.text)
    TIM7_IRQHandler                          0x08000163   Thumb Code     0  startup_stm32f10x_hd.o(.text)
    TIM8_BRK_IRQHandler                      0x08000163   Thumb Code     0  startup_stm32f10x_hd.o(.text)
    TIM8_CC_IRQHandler                       0x08000163   Thumb Code     0  startup_stm32f10x_hd.o(.text)
    TIM8_TRG_COM_IRQHandler                  0x08000163   Thumb Code     0  startup_stm32f10x_hd.o(.text)
    TIM8_UP_IRQHandler                       0x08000163   Thumb Code     0  startup_stm32f10x_hd.o(.text)
    UART5_IRQHandler                         0x08000163   Thumb Code     0  startup_stm32f10x_hd.o(.text)
    USBWakeUp_IRQHandler                     0x08000163   Thumb Code     0  startup_stm32f10x_hd.o(.text)
    USB_HP_CAN1_TX_IRQHandler                0x08000163   Thumb Code     0  startup_stm32f10x_hd.o(.text)
    USB_LP_CAN1_RX0_IRQHandler               0x08000163   Thumb Code     0  startup_stm32f10x_hd.o(.text)
    WWDG_IRQHandler                          0x08000163   Thumb Code     0  startup_stm32f10x_hd.o(.text)
    OS_CPU_SR_Save                           0x0800016d   Thumb Code     0  os_cpu_a.o(.text)
    OS_CPU_SR_Restore                        0x08000175   Thumb Code     0  os_cpu_a.o(.text)
    OSStartHighRdy                           0x0800017b   Thumb Code     0  os_cpu_a.o(.text)
    OSCtxSw                                  0x0800019b   Thumb Code     0  os_cpu_a.o(.text)
    OSIntCtxSw                               0x080001a5   Thumb Code     0  os_cpu_a.o(.text)
    OS_CPU_PendSVHandler                     0x080001af   Thumb Code     0  os_cpu_a.o(.text)
    __aeabi_memcpy                           0x08000211   Thumb Code    36  memcpya.o(.text)
    __aeabi_memcpy4                          0x08000211   Thumb Code     0  memcpya.o(.text)
    __aeabi_memcpy8                          0x08000211   Thumb Code     0  memcpya.o(.text)
    __aeabi_memset                           0x08000235   Thumb Code    14  memseta.o(.text)
    __aeabi_memset4                          0x08000235   Thumb Code     0  memseta.o(.text)
    __aeabi_memset8                          0x08000235   Thumb Code     0  memseta.o(.text)
    __aeabi_memclr                           0x08000243   Thumb Code     4  memseta.o(.text)
    __aeabi_memclr4                          0x08000243   Thumb Code     0  memseta.o(.text)
    __aeabi_memclr8                          0x08000243   Thumb Code     0  memseta.o(.text)
    _memset$wrapper                          0x08000247   Thumb Code    18  memseta.o(.text)
    __aeabi_fadd                             0x08000259   Thumb Code   164  fadd.o(.text)
    __aeabi_fsub                             0x080002fd   Thumb Code     6  fadd.o(.text)
    __aeabi_frsub                            0x08000303   Thumb Code     6  fadd.o(.text)
    __aeabi_fmul                             0x08000309   Thumb Code   100  fmul.o(.text)
    __aeabi_fdiv                             0x0800036d   Thumb Code   124  fdiv.o(.text)
    __aeabi_dadd                             0x080003e9   Thumb Code   322  dadd.o(.text)
    __aeabi_dsub                             0x0800052b   Thumb Code     6  dadd.o(.text)
    __aeabi_drsub                            0x08000531   Thumb Code     6  dadd.o(.text)
    __aeabi_dmul                             0x08000537   Thumb Code   228  dmul.o(.text)
    __aeabi_ddiv                             0x0800061b   Thumb Code   222  ddiv.o(.text)
    __aeabi_i2f                              0x080006f9   Thumb Code    18  fflti.o(.text)
    __aeabi_ui2f                             0x0800070b   Thumb Code    10  ffltui.o(.text)
    __aeabi_l2f                              0x08000715   Thumb Code    44  ffltl.o(.text)
    __aeabi_i2d                              0x08000741   Thumb Code    34  dflti.o(.text)
    __aeabi_ui2d                             0x08000763   Thumb Code    26  dfltui.o(.text)
    __aeabi_l2d                              0x0800077d   Thumb Code    40  dfltl.o(.text)
    __aeabi_d2iz                             0x080007a5   Thumb Code    62  dfixi.o(.text)
    __aeabi_d2uiz                            0x080007e3   Thumb Code    50  dfixui.o(.text)
    __aeabi_f2d                              0x08000815   Thumb Code    38  f2d.o(.text)
    __aeabi_d2f                              0x0800083b   Thumb Code    56  d2f.o(.text)
    __aeabi_cfcmpeq                          0x08000875   Thumb Code     0  cfcmple.o(.text)
    __aeabi_cfcmple                          0x08000875   Thumb Code    20  cfcmple.o(.text)
    __aeabi_cfrcmple                         0x08000889   Thumb Code    20  cfrcmple.o(.text)
    __aeabi_llsl                             0x0800089d   Thumb Code    30  llshl.o(.text)
    _ll_shift_l                              0x0800089d   Thumb Code     0  llshl.o(.text)
    __aeabi_llsr                             0x080008bb   Thumb Code    32  llushr.o(.text)
    _ll_ushift_r                             0x080008bb   Thumb Code     0  llushr.o(.text)
    __aeabi_lasr                             0x080008db   Thumb Code    36  llsshr.o(.text)
    _ll_sshift_r                             0x080008db   Thumb Code     0  llsshr.o(.text)
    __I$use$fp                               0x080008ff   Thumb Code     0  iusefp.o(.text)
    _float_round                             0x080008ff   Thumb Code    18  fepilogue.o(.text)
    _float_epilogue                          0x08000911   Thumb Code    92  fepilogue.o(.text)
    _double_round                            0x0800096d   Thumb Code    30  depilogue.o(.text)
    _double_epilogue                         0x0800098b   Thumb Code   156  depilogue.o(.text)
    __scatterload                            0x08000a29   Thumb Code    28  init.o(.text)
    __scatterload_rt2                        0x08000a29   Thumb Code     0  init.o(.text)
    __ARM_scalbn                             0x08000a4d   Thumb Code    46  dscalb.o(.text)
    scalbn                                   0x08000a4d   Thumb Code     0  dscalb.o(.text)
    ADC1Init                                 0x08000a7d   Thumb Code   108  adc.o(i.ADC1Init)
    ADC_Cmd                                  0x08000aed   Thumb Code    22  stm32f10x_adc.o(i.ADC_Cmd)
    ADC_GetCalibrationStatus                 0x08000b03   Thumb Code    20  stm32f10x_adc.o(i.ADC_GetCalibrationStatus)
    ADC_GetConversionValue                   0x08000b17   Thumb Code     8  stm32f10x_adc.o(i.ADC_GetConversionValue)
    ADC_GetResetCalibrationStatus            0x08000b1f   Thumb Code    20  stm32f10x_adc.o(i.ADC_GetResetCalibrationStatus)
    ADC_Init                                 0x08000b35   Thumb Code    70  stm32f10x_adc.o(i.ADC_Init)
    ADC_RegularChannelConfig                 0x08000b85   Thumb Code   184  stm32f10x_adc.o(i.ADC_RegularChannelConfig)
    ADC_ResetCalibration                     0x08000c3d   Thumb Code    10  stm32f10x_adc.o(i.ADC_ResetCalibration)
    ADC_SoftwareStartConvCmd                 0x08000c47   Thumb Code    22  stm32f10x_adc.o(i.ADC_SoftwareStartConvCmd)
    ADC_StartCalibration                     0x08000c5d   Thumb Code    10  stm32f10x_adc.o(i.ADC_StartCalibration)
    AnalogRTC                                0x08000cd5   Thumb Code    52  main.o(i.AnalogRTC)
    AppTaskCreate                            0x08000d0d   Thumb Code   100  main.o(i.AppTaskCreate)
    BusFault_Handler                         0x08000db1   Thumb Code     4  stm32f10x_it.o(i.BusFault_Handler)
    COM1Init                                 0x08000db5   Thumb Code    80  com.o(i.COM1Init)
    COM2Init                                 0x08000e0d   Thumb Code    78  com.o(i.COM2Init)
    COM2_SendRecProcess                      0x08000e65   Thumb Code   120  flowmeterhandle.o(i.COM2_SendRecProcess)
    COM3Init                                 0x08000eed   Thumb Code   160  com.o(i.COM3Init)
    COM4Init                                 0x08000f95   Thumb Code    70  com.o(i.COM4Init)
    CRCReplace                               0x08000fe1   Thumb Code    30  ptu5x.o(i.CRCReplace)
    CalCRC16                                 0x08001001   Thumb Code    50  crc.o(i.CalCRC16)
    CalFlowQRatio                            0x0800103d   Thumb Code    58  calc.o(i.CalFlowQRatio)
    CalFlowRatio                             0x08001089   Thumb Code   296  calc.o(i.CalFlowRatio)
    CalHeatQRatio                            0x080011d5   Thumb Code    54  calc.o(i.CalHeatQRatio)
    CalRatio                                 0x0800121d   Thumb Code    16  calc.o(i.CalRatio)
    ChToFloat                                0x0800122d   Thumb Code    28  modbusprotocol.o(i.ChToFloat)
    ChToINT16                                0x08001249   Thumb Code    16  modbusprotocol.o(i.ChToINT16)
    DateChange                               0x08001259   Thumb Code   284  calc.o(i.DateChange)
    DebugMon_Handler                         0x08001391   Thumb Code     2  stm32f10x_it.o(i.DebugMon_Handler)
    Delayms                                  0x08001393   Thumb Code    24  delay_io_nvic_init.o(i.Delayms)
    Delayus                                  0x080013ab   Thumb Code    50  delay_io_nvic_init.o(i.Delayus)
    Disp                                     0x080013dd   Thumb Code   276  disp.o(i.Disp)
    DispBackCheck                            0x08001529   Thumb Code   110  disp.o(i.DispBackCheck)
    Disp_SendArr                             0x080015a5   Thumb Code    44  disp.o(i.Disp_SendArr)
    Disp_SendData                            0x080015d1   Thumb Code    28  disp.o(i.Disp_SendData)
    Disp_WrFloat                             0x080015f1   Thumb Code    96  disp.o(i.Disp_WrFloat)
    Disp_WrInt                               0x08001659   Thumb Code   104  disp.o(i.Disp_WrInt)
    Disp_WrRtc                               0x080016c9   Thumb Code   210  disp.o(i.Disp_WrRtc)
    EventRecord                              0x080017a9   Thumb Code   728  calc.o(i.EventRecord)
    FM_Rec                                   0x08001ab9   Thumb Code    60  fm25cl64.o(i.FM_Rec)
    FM_Send                                  0x08001af9   Thumb Code    70  fm25cl64.o(i.FM_Send)
    FloatToCh                                0x08001b45   Thumb Code    24  modbusprotocol.o(i.FloatToCh)
    GPIO_Init                                0x08001b5d   Thumb Code   278  stm32f10x_gpio.o(i.GPIO_Init)
    GPIO_ReadInputDataBit                    0x08001c73   Thumb Code    18  stm32f10x_gpio.o(i.GPIO_ReadInputDataBit)
    GPIO_ResetBits                           0x08001c85   Thumb Code     4  stm32f10x_gpio.o(i.GPIO_ResetBits)
    GPIO_SetBits                             0x08001c89   Thumb Code     4  stm32f10x_gpio.o(i.GPIO_SetBits)
    GetUstcDis2                              0x08001c8d   Thumb Code   144  ptu5x.o(i.GetUstcDis2)
    GetUstcToPC                              0x08001d29   Thumb Code   218  ptu5x.o(i.GetUstcToPC)
    GetVin                                   0x08001e19   Thumb Code    50  adc.o(i.GetVin)
    Get_JTAG_ID                              0x08001e51   Thumb Code    52  main.o(i.Get_JTAG_ID)
    HardFault_Handler                        0x08001e89   Thumb Code     4  stm32f10x_it.o(i.HardFault_Handler)
    HighPstDis                               0x08001e8d   Thumb Code   428  disp.o(i.HighPstDis)
    INT16ToCh                                0x08002051   Thumb Code    10  modbusprotocol.o(i.INT16ToCh)
    IO_Init                                  0x0800205d   Thumb Code   368  delay_io_nvic_init.o(i.IO_Init)
    IWDG_Enable                              0x080021dd   Thumb Code    10  stm32f10x_iwdg.o(i.IWDG_Enable)
    IWDG_ReloadCounter                       0x080021ed   Thumb Code    10  stm32f10x_iwdg.o(i.IWDG_ReloadCounter)
    IWDG_Reset                               0x080021fd   Thumb Code    32  delay_io_nvic_init.o(i.IWDG_Reset)
    IWDG_SetPrescaler                        0x0800221d   Thumb Code     6  stm32f10x_iwdg.o(i.IWDG_SetPrescaler)
    IWDG_SetReload                           0x08002229   Thumb Code     6  stm32f10x_iwdg.o(i.IWDG_SetReload)
    IWDG_WriteAccessCmd                      0x08002235   Thumb Code     6  stm32f10x_iwdg.o(i.IWDG_WriteAccessCmd)
    MbRegRead                                0x08002241   Thumb Code  3004  modbusprotocol.o(i.MbRegRead)
    MemManage_Handler                        0x08002e05   Thumb Code     4  stm32f10x_it.o(i.MemManage_Handler)
    NMI_Handler                              0x08002e09   Thumb Code     2  stm32f10x_it.o(i.NMI_Handler)
    NVIC_Configuration                       0x08002e0b   Thumb Code   162  delay_io_nvic_init.o(i.NVIC_Configuration)
    NVIC_Init                                0x08002ead   Thumb Code   100  misc.o(i.NVIC_Init)
    NVIC_PriorityGroupConfig                 0x08002f1d   Thumb Code    10  misc.o(i.NVIC_PriorityGroupConfig)
    OSInit                                   0x08002f31   Thumb Code    36  os_core.o(i.OSInit)
    OSInitHookBegin                          0x08002f55   Thumb Code     2  os_cpu_c.o(i.OSInitHookBegin)
    OSInitHookEnd                            0x08002f57   Thumb Code     2  os_cpu_c.o(i.OSInitHookEnd)
    OSIntEnter                               0x08002f59   Thumb Code    28  os_core.o(i.OSIntEnter)
    OSIntExit                                0x08002f7d   Thumb Code   112  os_core.o(i.OSIntExit)
    OSStart                                  0x0800300d   Thumb Code    48  os_core.o(i.OSStart)
    OSTCBInitHook                            0x08003055   Thumb Code     2  os_cpu_c.o(i.OSTCBInitHook)
    OSTaskCreate                             0x08003059   Thumb Code   158  os_task.o(i.OSTaskCreate)
    OSTaskCreateExt                          0x08003105   Thumb Code   180  os_task.o(i.OSTaskCreateExt)
    OSTaskCreateHook                         0x080031c5   Thumb Code     2  os_cpu_c.o(i.OSTaskCreateHook)
    OSTaskIdleHook                           0x080031c7   Thumb Code     2  os_cpu_c.o(i.OSTaskIdleHook)
    OSTaskNameSet                            0x080031c9   Thumb Code   160  os_task.o(i.OSTaskNameSet)
    OSTaskStatHook                           0x08003275   Thumb Code     2  os_cpu_c.o(i.OSTaskStatHook)
    OSTaskStkChk                             0x08003279   Thumb Code   150  os_task.o(i.OSTaskStkChk)
    OSTaskStkInit                            0x08003319   Thumb Code   154  os_cpu_c.o(i.OSTaskStkInit)
    OSTaskSuspend                            0x080033b5   Thumb Code   168  os_task.o(i.OSTaskSuspend)
    OSTaskSwHook                             0x0800346d   Thumb Code     2  os_cpu_c.o(i.OSTaskSwHook)
    OSTimeDly                                0x08003471   Thumb Code    96  os_time.o(i.OSTimeDly)
    OSTimeTick                               0x080034e1   Thumb Code   200  os_core.o(i.OSTimeTick)
    OSTimeTickHook                           0x080035c1   Thumb Code     2  os_cpu_c.o(i.OSTimeTickHook)
    OS_MemClr                                0x08003769   Thumb Code    18  os_core.o(i.OS_MemClr)
    OS_Sched                                 0x0800377d   Thumb Code    86  os_core.o(i.OS_Sched)
    OS_StrCopy                               0x0800381d   Thumb Code    28  os_core.o(i.OS_StrCopy)
    OS_StrLen                                0x08003839   Thumb Code    20  os_core.o(i.OS_StrLen)
    OS_TCBInit                               0x0800384d   Thumb Code   252  os_core.o(i.OS_TCBInit)
    OS_TaskIdle                              0x08003961   Thumb Code    32  os_core.o(i.OS_TaskIdle)
    OS_TaskStat                              0x08003985   Thumb Code   114  os_core.o(i.OS_TaskStat)
    OS_TaskStatStkChk                        0x08003a0d   Thumb Code    54  os_core.o(i.OS_TaskStatStkChk)
    OS_TaskStkClr                            0x08003a49   Thumb Code    26  os_task.o(i.OS_TaskStkClr)
    Out4_20mA                                0x08003a65   Thumb Code   168  timer.o(i.Out4_20mA)
    PowerDetection                           0x08003b21   Thumb Code    76  main.o(i.PowerDetection)
    PowerDownEvent                           0x08003b75   Thumb Code   110  calc.o(i.PowerDownEvent)
    RCC_ADCCLKConfig                         0x08003bf9   Thumb Code    18  stm32f10x_rcc.o(i.RCC_ADCCLKConfig)
    RCC_APB1PeriphClockCmd                   0x08003c11   Thumb Code    26  stm32f10x_rcc.o(i.RCC_APB1PeriphClockCmd)
    RCC_APB1PeriphResetCmd                   0x08003c31   Thumb Code    26  stm32f10x_rcc.o(i.RCC_APB1PeriphResetCmd)
    RCC_APB2PeriphClockCmd                   0x08003c51   Thumb Code    26  stm32f10x_rcc.o(i.RCC_APB2PeriphClockCmd)
    RCC_APB2PeriphResetCmd                   0x08003c71   Thumb Code    26  stm32f10x_rcc.o(i.RCC_APB2PeriphResetCmd)
    RCC_GetClocksFreq                        0x08003c91   Thumb Code   192  stm32f10x_rcc.o(i.RCC_GetClocksFreq)
    ReadCfg                                  0x08003df9   Thumb Code   224  memory.o(i.ReadCfg)
    ReadFM                                   0x08003ee9   Thumb Code    74  fm25cl64.o(i.ReadFM)
    ReadHisP                                 0x08003f39   Thumb Code   158  memory.o(i.ReadHisP)
    ReadPCF8563                              0x08003fdd   Thumb Code   108  pcf8563.o(i.ReadPCF8563)
    ReadPar                                  0x0800404d   Thumb Code    24  memory.o(i.ReadPar)
    ReadRunTime                              0x08004065   Thumb Code   118  memory.o(i.ReadRunTime)
    ReadSumFlowQ                             0x080040e1   Thumb Code   124  memory.o(i.ReadSumFlowQ)
    ReadSumHeatQ                             0x08004161   Thumb Code   124  memory.o(i.ReadSumHeatQ)
    ReadTime                                 0x080041e1   Thumb Code   242  pcf8563.o(i.ReadTime)
    Read_Ret                                 0x080042d9   Thumb Code    62  modbusprotocol.o(i.Read_Ret)
    RelayTask                                0x08004325   Thumb Code   234  relay.o(i.RelayTask)
    RxDataAnalyze                            0x0800442d   Thumb Code   418  disp.o(i.RxDataAnalyze)
    SVC_Handler                              0x080045fd   Thumb Code     2  stm32f10x_it.o(i.SVC_Handler)
    SetIuA                                   0x080046cd   Thumb Code    30  timer.o(i.SetIuA)
    SysTick_Handler                          0x080048a5   Thumb Code    16  stm32f10x_it.o(i.SysTick_Handler)
    SysTick_init                             0x080048b5   Thumb Code    92  main.o(i.SysTick_init)
    SystemInit                               0x08004919   Thumb Code    78  system_stm32f10x.o(i.SystemInit)
    TIM3Init                                 0x08004979   Thumb Code    96  timer.o(i.TIM3Init)
    TIM4Init                                 0x080049e1   Thumb Code    68  timer.o(i.TIM4Init)
    TIM4_IRQHandler                          0x08004a29   Thumb Code   142  timer.o(i.TIM4_IRQHandler)
    TIM_ClearFlag                            0x08004ad1   Thumb Code     6  stm32f10x_tim.o(i.TIM_ClearFlag)
    TIM_ClearITPendingBit                    0x08004ad7   Thumb Code     6  stm32f10x_tim.o(i.TIM_ClearITPendingBit)
    TIM_Cmd                                  0x08004add   Thumb Code    24  stm32f10x_tim.o(i.TIM_Cmd)
    TIM_DeInit                               0x08004af5   Thumb Code   424  stm32f10x_tim.o(i.TIM_DeInit)
    TIM_GetCapture1                          0x08004cdd   Thumb Code     6  stm32f10x_tim.o(i.TIM_GetCapture1)
    TIM_GetCounter                           0x08004ce3   Thumb Code     6  stm32f10x_tim.o(i.TIM_GetCounter)
    TIM_GetITStatus                          0x08004ce9   Thumb Code    34  stm32f10x_tim.o(i.TIM_GetITStatus)
    TIM_ITConfig                             0x08004d0b   Thumb Code    18  stm32f10x_tim.o(i.TIM_ITConfig)
    TIM_OC3Init                              0x08004d1d   Thumb Code   150  stm32f10x_tim.o(i.TIM_OC3Init)
    TIM_SetCompare1                          0x08004dbd   Thumb Code     4  stm32f10x_tim.o(i.TIM_SetCompare1)
    TIM_SetCompare3                          0x08004dc1   Thumb Code     4  stm32f10x_tim.o(i.TIM_SetCompare3)
    TIM_TimeBaseInit                         0x08004dc5   Thumb Code   122  stm32f10x_tim.o(i.TIM_TimeBaseInit)
    Task0                                    0x08004e69   Thumb Code   132  main.o(i.Task0)
    Task1                                    0x08004f05   Thumb Code    20  main.o(i.Task1)
    Task2                                    0x08004f1d   Thumb Code    54  main.o(i.Task2)
    Task3                                    0x08004f59   Thumb Code   170  main.o(i.Task3)
    Task4                                    0x08005015   Thumb Code    96  main.o(i.Task4)
    Task5                                    0x0800508d   Thumb Code    16  main.o(i.Task5)
    Task6                                    0x0800509d   Thumb Code    16  main.o(i.Task6)
    Task7                                    0x080050ad   Thumb Code    24  main.o(i.Task7)
    Tx2Send                                  0x080050c5   Thumb Code    36  com.o(i.Tx2Send)
    Tx3Send                                  0x080050f5   Thumb Code    68  com.o(i.Tx3Send)
    UART4_IRQHandler                         0x08005145   Thumb Code   182  com.o(i.UART4_IRQHandler)
    USART1_IRQHandler                        0x0800520d   Thumb Code   182  com.o(i.USART1_IRQHandler)
    USART2_IRQHandler                        0x080052e5   Thumb Code   180  com.o(i.USART2_IRQHandler)
    USART3_IRQHandler                        0x080053b9   Thumb Code   208  com.o(i.USART3_IRQHandler)
    USART_ClearITPendingBit                  0x080054a9   Thumb Code    30  stm32f10x_usart.o(i.USART_ClearITPendingBit)
    USART_Cmd                                0x080054c7   Thumb Code    24  stm32f10x_usart.o(i.USART_Cmd)
    USART_GetFlagStatus                      0x080054df   Thumb Code    26  stm32f10x_usart.o(i.USART_GetFlagStatus)
    USART_GetITStatus                        0x080054f9   Thumb Code    84  stm32f10x_usart.o(i.USART_GetITStatus)
    USART_ITConfig                           0x0800554d   Thumb Code    74  stm32f10x_usart.o(i.USART_ITConfig)
    USART_Init                               0x08005599   Thumb Code   210  stm32f10x_usart.o(i.USART_Init)
    USART_ReceiveData                        0x08005671   Thumb Code    10  stm32f10x_usart.o(i.USART_ReceiveData)
    USART_SendData                           0x0800567b   Thumb Code     8  stm32f10x_usart.o(i.USART_SendData)
    UsConfigSet                              0x08005683   Thumb Code    16  disp.o(i.UsConfigSet)
    UsDataSend                               0x08005695   Thumb Code   166  ptu5x.o(i.UsDataSend)
    UsageFault_Handler                       0x08005745   Thumb Code     4  stm32f10x_it.o(i.UsageFault_Handler)
    UstcComMirror                            0x08005749   Thumb Code   172  ptu5x.o(i.UstcComMirror)
    UstcDateUpdate                           0x08005819   Thumb Code   160  ptu5x.o(i.UstcDateUpdate)
    UstcWriteGolbal                          0x080058c1   Thumb Code   168  ptu5x.o(i.UstcWriteGolbal)
    WriteCfg                                 0x080059a1   Thumb Code    38  memory.o(i.WriteCfg)
    WriteDayHis                              0x080059cd   Thumb Code   110  calc.o(i.WriteDayHis)
    WriteFM                                  0x08005a51   Thumb Code    82  fm25cl64.o(i.WriteFM)
    WriteFMFill                              0x08005aa9   Thumb Code    74  fm25cl64.o(i.WriteFMFill)
    WriteHisP                                0x08005af9   Thumb Code    36  memory.o(i.WriteHisP)
    WriteMonHis                              0x08005b21   Thumb Code   110  calc.o(i.WriteMonHis)
    WritePCF8563                             0x08005ba5   Thumb Code    82  pcf8563.o(i.WritePCF8563)
    WritePar                                 0x08005bfd   Thumb Code   160  memory.o(i.WritePar)
    WriteRunTime                             0x08005ca1   Thumb Code    36  memory.o(i.WriteRunTime)
    WriteSumFlowQ                            0x08005cc9   Thumb Code    36  memory.o(i.WriteSumFlowQ)
    WriteSumHeatQ                            0x08005cf1   Thumb Code    36  memory.o(i.WriteSumHeatQ)
    WriteTime                                0x08005d19   Thumb Code   224  pcf8563.o(i.WriteTime)
    WriteYearHis                             0x08005dfd   Thumb Code   110  calc.o(i.WriteYearHis)
    Write_Disable                            0x08005e81   Thumb Code    30  fm25cl64.o(i.Write_Disable)
    Write_Enable                             0x08005ea5   Thumb Code    30  fm25cl64.o(i.Write_Enable)
    Write_Ret                                0x08005ec9   Thumb Code    44  modbusprotocol.o(i.Write_Ret)
    __ARM_fpclassify                         0x08005f01   Thumb Code    40  fpclassify.o(i.__ARM_fpclassify)
    __ieee754_rem_pio2                       0x08005f29   Thumb Code   828  rred.o(i.__ieee754_rem_pio2)
    __kernel_poly                            0x080062b1   Thumb Code   170  poly.o(i.__kernel_poly)
    __kernel_tan                             0x0800635d   Thumb Code   586  tan_i.o(i.__kernel_tan)
    __mathlib_dbl_infnan                     0x080065d9   Thumb Code     6  dunder.o(i.__mathlib_dbl_infnan)
    __mathlib_dbl_invalid                    0x080065df   Thumb Code    12  dunder.o(i.__mathlib_dbl_invalid)
    __mathlib_dbl_underflow                  0x080065ed   Thumb Code    10  dunder.o(i.__mathlib_dbl_underflow)
    __scatterload_copy                       0x080065fd   Thumb Code    14  handlers.o(i.__scatterload_copy)
    __scatterload_null                       0x0800660b   Thumb Code     2  handlers.o(i.__scatterload_null)
    __scatterload_zeroinit                   0x0800660d   Thumb Code    14  handlers.o(i.__scatterload_zeroinit)
    __set_errno                              0x0800661d   Thumb Code     6  errno.o(i.__set_errno)
    main                                     0x08006629   Thumb Code   112  main.o(i.main)
    tan                                      0x080066a5   Thumb Code    90  tan.o(i.tan)
    auchCRCHi                                0x08006708   Data         256  crc.o(.constdata)
    auchCRCLo                                0x08006808   Data         256  crc.o(.constdata)
    OSUnMapTbl                               0x08006908   Data         256  os_core.o(.constdata)
    Region$$Table$$Base                      0x08006b30   Number         0  anon$$obj.o(Region$$Table)
    Region$$Table$$Limit                     0x08006b50   Number         0  anon$$obj.o(Region$$Table)
    CPU_Type                                 0x20000000   Data           2  main.o(.data)
    Time                                     0x20000002   Data           6  main.o(.data)
    WrCmd                                    0x20000008   Data           2  main.o(.data)
    Vin                                      0x2000000a   Data           2  main.o(.data)
    SysTime                                  0x2000000c   Data           2  main.o(.data)
    IuA                                      0x2000000e   Data           2  main.o(.data)
    Tx1Num                                   0x20000010   Data           1  main.o(.data)
    Tx1Cnt                                   0x20000011   Data           1  main.o(.data)
    Rx1Num                                   0x20000012   Data           1  main.o(.data)
    Rx1OverTime                              0x20000013   Data           1  main.o(.data)
    Tx2Num                                   0x20000014   Data           1  main.o(.data)
    Tx2Cnt                                   0x20000015   Data           1  main.o(.data)
    Rx2Num                                   0x20000016   Data           1  main.o(.data)
    Rx2OverTime                              0x20000017   Data           1  main.o(.data)
    Tx3Num                                   0x20000018   Data           1  main.o(.data)
    Tx3Cnt                                   0x20000019   Data           1  main.o(.data)
    Rx3Num                                   0x2000001a   Data           1  main.o(.data)
    Rx3OverTime                              0x2000001b   Data           1  main.o(.data)
    Rx4Num                                   0x2000001c   Data           1  main.o(.data)
    Rx4OverTime                              0x2000001d   Data           1  main.o(.data)
    Fault                                    0x2000001e   Data           2  main.o(.data)
    HalfSecTrigger                           0x20000020   Data           1  main.o(.data)
    AveTimeDiff                              0x20000024   Data           4  main.o(.data)
    AveFlyTime                               0x20000028   Data           4  main.o(.data)
    AveSA                                    0x2000002c   Data           1  main.o(.data)
    AveSQ                                    0x2000002e   Data           2  main.o(.data)
    HeatTemp                                 0x20000030   Data           2  main.o(.data)
    ColdTemp                                 0x20000032   Data           2  main.o(.data)
    FlowRatio                                0x20000034   Data           4  main.o(.data)
    Flow                                     0x20000038   Data           4  main.o(.data)
    FlowQRatio                               0x2000003c   Data           4  main.o(.data)
    FlowQ                                    0x20000040   Data           4  main.o(.data)
    HeatQRatio                               0x20000044   Data           4  main.o(.data)
    HeatQ                                    0x20000048   Data           4  main.o(.data)
    PoutN                                    0x2000004c   Data           2  main.o(.data)
    PHCnt                                    0x2000004e   Data           2  main.o(.data)
    PLCnt                                    0x20000050   Data           2  main.o(.data)
    PassWord                                 0x20000052   Data           4  main.o(.data)
    Old_Year                                 0x20000056   Data           1  main.o(.data)
    Old_Mon                                  0x20000057   Data           1  main.o(.data)
    Old_Day                                  0x20000058   Data           1  main.o(.data)
    T0                                       0x2000005a   Data           2  main.o(.data)
    T1                                       0x2000005c   Data           2  main.o(.data)
    T2                                       0x2000005e   Data           2  main.o(.data)
    T3                                       0x20000060   Data           2  main.o(.data)
    UsDistance                               0x20000062   Data           2  main.o(.data)
    UsLevelmm                                0x20000064   Data           2  main.o(.data)
    UsLevelpst                               0x20000068   Data           4  main.o(.data)
    UsTemp                                   0x2000006c   Data           4  main.o(.data)
    UsOutput                                 0x20000070   Data           4  main.o(.data)
    Us4mADis                                 0x20000074   Data           2  main.o(.data)
    Us20mADis                                0x20000076   Data           2  main.o(.data)
    UsBlindDis                               0x20000078   Data           2  main.o(.data)
    UsCoeffcient                             0x2000007a   Data           2  main.o(.data)
    UsUID                                    0x2000007c   Data           4  main.o(.data)
    UsMedium                                 0x20000080   Data           2  main.o(.data)
    UsRLMin                                  0x20000082   Data           2  main.o(.data)
    UsRLMax                                  0x20000084   Data           2  main.o(.data)
    UsRLVal                                  0x20000086   Data           2  main.o(.data)
    UsRLstatus                               0x20000088   Data           2  main.o(.data)
    KeyData                                  0x2000008a   Data           1  main.o(.data)
    ArrCnt                                   0x20000090   Data           1  disp.o(.data)
    Pic                                      0x20000092   Data           2  disp.o(.data)
    F_FlowThreshold                          0x20000098   Data           4  calc.o(.data)
    F_TimeDiffThreshold                      0x2000009c   Data           4  calc.o(.data)
    OSCtxSwCtr                               0x200000c4   Data           4  os_core.o(.data)
    OSCPUUsage                               0x200000c8   Data           1  os_core.o(.data)
    OSIdleCtrMax                             0x200000cc   Data           4  os_core.o(.data)
    OSIdleCtrRun                             0x200000d0   Data           4  os_core.o(.data)
    OSStatRdy                                0x200000d4   Data           1  os_core.o(.data)
    OSIntNesting                             0x200000d5   Data           1  os_core.o(.data)
    OSLockNesting                            0x200000d6   Data           1  os_core.o(.data)
    OSPrioCur                                0x200000d7   Data           1  os_core.o(.data)
    OSPrioHighRdy                            0x200000d8   Data           1  os_core.o(.data)
    OSRdyGrp                                 0x200000d9   Data           1  os_core.o(.data)
    OSRdyTbl                                 0x200000da   Data           4  os_core.o(.data)
    OSRunning                                0x200000de   Data           1  os_core.o(.data)
    OSTaskCtr                                0x200000df   Data           1  os_core.o(.data)
    OSIdleCtr                                0x200000e0   Data           4  os_core.o(.data)
    OSTCBCur                                 0x200000e4   Data           4  os_core.o(.data)
    OSTCBFreeList                            0x200000e8   Data           4  os_core.o(.data)
    OSTCBHighRdy                             0x200000ec   Data           4  os_core.o(.data)
    OSTCBList                                0x200000f0   Data           4  os_core.o(.data)
    OSTickStepState                          0x200000f4   Data           1  os_core.o(.data)
    OSTime                                   0x200000f8   Data           4  os_core.o(.data)
    Cfg                                      0x20000100   Data          72  main.o(.bss)
    RunTime                                  0x20000148   Data          12  main.o(.bss)
    SumFlowQ                                 0x20000158   Data          48  main.o(.bss)
    SumHeatQ                                 0x20000188   Data          48  main.o(.bss)
    HisP                                     0x200001b8   Data          12  main.o(.bss)
    Tx1Buf                                   0x200001c4   Data         100  main.o(.bss)
    Rx1Buf                                   0x20000228   Data         100  main.o(.bss)
    Tx2Buf                                   0x2000028c   Data         100  main.o(.bss)
    Rx2Buf                                   0x200002f0   Data         200  main.o(.bss)
    Tx3Buf                                   0x200003b8   Data         256  main.o(.bss)
    Rx3Buf                                   0x200004b8   Data         100  main.o(.bss)
    Rx4Buf                                   0x2000051c   Data         100  main.o(.bss)
    Str                                      0x20000580   Data         100  main.o(.bss)
    FlowMeter1                               0x200005e4   Data          56  main.o(.bss)
    FlowMeter2                               0x2000061c   Data          56  main.o(.bss)
    W_M                                      0x20000654   Data          56  main.o(.bss)
    Arr                                      0x20004060   Data         100  disp.o(.bss)
    OSTaskStatStk                            0x200040c4   Data         512  os_core.o(.bss)
    OSTaskIdleStk                            0x200042c4   Data         512  os_core.o(.bss)
    OSTCBPrioTbl                             0x200044c4   Data         128  os_core.o(.bss)
    OSTCBTbl                                 0x20004544   Data        1368  os_core.o(.bss)
    __initial_sp                             0x20004ea0   Data           0  startup_stm32f10x_hd.o(STACK)



==============================================================================

Memory Map of the image

  Image Entry point : 0x08000131

  Load Region LR_IROM1 (Base: 0x08000000, Size: 0x00006c50, Max: 0x00040000, ABSOLUTE)

    Execution Region ER_IROM1 (Exec base: 0x08000000, Load base: 0x08000000, Size: 0x00006b50, Max: 0x00040000, ABSOLUTE)

    Exec Addr    Load Addr    Size         Type   Attr      Idx    E Section Name        Object

    0x08000000   0x08000000   0x00000130   Data   RO         3219    RESET               startup_stm32f10x_hd.o
    0x08000130   0x08000130   0x00000000   Code   RO         4444  * .ARM.Collect$$$$00000000  mc_w.l(entry.o)
    0x08000130   0x08000130   0x00000004   Code   RO         4781    .ARM.Collect$$$$00000001  mc_w.l(entry2.o)
    0x08000134   0x08000134   0x00000004   Code   RO         4784    .ARM.Collect$$$$00000004  mc_w.l(entry5.o)
    0x08000138   0x08000138   0x00000000   Code   RO         4786    .ARM.Collect$$$$00000008  mc_w.l(entry7b.o)
    0x08000138   0x08000138   0x00000000   Code   RO         4788    .ARM.Collect$$$$0000000A  mc_w.l(entry8b.o)
    0x08000138   0x08000138   0x00000008   Code   RO         4789    .ARM.Collect$$$$0000000B  mc_w.l(entry9a.o)
    0x08000140   0x08000140   0x00000004   Code   RO         4796    .ARM.Collect$$$$0000000E  mc_w.l(entry12b.o)
    0x08000144   0x08000144   0x00000000   Code   RO         4791    .ARM.Collect$$$$0000000F  mc_w.l(entry10a.o)
    0x08000144   0x08000144   0x00000000   Code   RO         4793    .ARM.Collect$$$$00000011  mc_w.l(entry11a.o)
    0x08000144   0x08000144   0x00000004   Code   RO         4782    .ARM.Collect$$$$00002712  mc_w.l(entry2.o)
    0x08000148   0x08000148   0x00000024   Code   RO         3220    .text               startup_stm32f10x_hd.o
    0x0800016c   0x0800016c   0x000000a4   Code   RO         3638    .text               os_cpu_a.o
    0x08000210   0x08000210   0x00000024   Code   RO         4447    .text               mc_w.l(memcpya.o)
    0x08000234   0x08000234   0x00000024   Code   RO         4449    .text               mc_w.l(memseta.o)
    0x08000258   0x08000258   0x000000b0   Code   RO         4716    .text               mf_w.l(fadd.o)
    0x08000308   0x08000308   0x00000064   Code   RO         4718    .text               mf_w.l(fmul.o)
    0x0800036c   0x0800036c   0x0000007c   Code   RO         4720    .text               mf_w.l(fdiv.o)
    0x080003e8   0x080003e8   0x0000014e   Code   RO         4722    .text               mf_w.l(dadd.o)
    0x08000536   0x08000536   0x000000e4   Code   RO         4724    .text               mf_w.l(dmul.o)
    0x0800061a   0x0800061a   0x000000de   Code   RO         4726    .text               mf_w.l(ddiv.o)
    0x080006f8   0x080006f8   0x00000012   Code   RO         4728    .text               mf_w.l(fflti.o)
    0x0800070a   0x0800070a   0x0000000a   Code   RO         4730    .text               mf_w.l(ffltui.o)
    0x08000714   0x08000714   0x0000002c   Code   RO         4732    .text               mf_w.l(ffltl.o)
    0x08000740   0x08000740   0x00000022   Code   RO         4734    .text               mf_w.l(dflti.o)
    0x08000762   0x08000762   0x0000001a   Code   RO         4736    .text               mf_w.l(dfltui.o)
    0x0800077c   0x0800077c   0x00000028   Code   RO         4738    .text               mf_w.l(dfltl.o)
    0x080007a4   0x080007a4   0x0000003e   Code   RO         4744    .text               mf_w.l(dfixi.o)
    0x080007e2   0x080007e2   0x00000032   Code   RO         4746    .text               mf_w.l(dfixui.o)
    0x08000814   0x08000814   0x00000026   Code   RO         4748    .text               mf_w.l(f2d.o)
    0x0800083a   0x0800083a   0x00000038   Code   RO         4750    .text               mf_w.l(d2f.o)
    0x08000872   0x08000872   0x00000002   PAD
    0x08000874   0x08000874   0x00000014   Code   RO         4752    .text               mf_w.l(cfcmple.o)
    0x08000888   0x08000888   0x00000014   Code   RO         4754    .text               mf_w.l(cfrcmple.o)
    0x0800089c   0x0800089c   0x0000001e   Code   RO         4802    .text               mc_w.l(llshl.o)
    0x080008ba   0x080008ba   0x00000020   Code   RO         4804    .text               mc_w.l(llushr.o)
    0x080008da   0x080008da   0x00000024   Code   RO         4806    .text               mc_w.l(llsshr.o)
    0x080008fe   0x080008fe   0x00000000   Code   RO         4815    .text               mc_w.l(iusefp.o)
    0x080008fe   0x080008fe   0x0000006e   Code   RO         4816    .text               mf_w.l(fepilogue.o)
    0x0800096c   0x0800096c   0x000000ba   Code   RO         4818    .text               mf_w.l(depilogue.o)
    0x08000a26   0x08000a26   0x00000002   PAD
    0x08000a28   0x08000a28   0x00000024   Code   RO         4828    .text               mc_w.l(init.o)
    0x08000a4c   0x08000a4c   0x0000002e   Code   RO         4830    .text               mf_w.l(dscalb.o)
    0x08000a7a   0x08000a7a   0x00000002   PAD
    0x08000a7c   0x08000a7c   0x00000070   Code   RO          818    i.ADC1Init          adc.o
    0x08000aec   0x08000aec   0x00000016   Code   RO         2376    i.ADC_Cmd           stm32f10x_adc.o
    0x08000b02   0x08000b02   0x00000014   Code   RO         2384    i.ADC_GetCalibrationStatus  stm32f10x_adc.o
    0x08000b16   0x08000b16   0x00000008   Code   RO         2385    i.ADC_GetConversionValue  stm32f10x_adc.o
    0x08000b1e   0x08000b1e   0x00000014   Code   RO         2390    i.ADC_GetResetCalibrationStatus  stm32f10x_adc.o
    0x08000b32   0x08000b32   0x00000002   PAD
    0x08000b34   0x08000b34   0x00000050   Code   RO         2394    i.ADC_Init          stm32f10x_adc.o
    0x08000b84   0x08000b84   0x000000b8   Code   RO         2398    i.ADC_RegularChannelConfig  stm32f10x_adc.o
    0x08000c3c   0x08000c3c   0x0000000a   Code   RO         2399    i.ADC_ResetCalibration  stm32f10x_adc.o
    0x08000c46   0x08000c46   0x00000016   Code   RO         2401    i.ADC_SoftwareStartConvCmd  stm32f10x_adc.o
    0x08000c5c   0x08000c5c   0x0000000a   Code   RO         2403    i.ADC_StartCalibration  stm32f10x_adc.o
    0x08000c66   0x08000c66   0x00000002   PAD
    0x08000c68   0x08000c68   0x0000006c   Code   RO          761    i.Ack_I2c           pcf8563.o
    0x08000cd4   0x08000cd4   0x00000038   Code   RO            1    i.AnalogRTC         main.o
    0x08000d0c   0x08000d0c   0x000000a4   Code   RO            2    i.AppTaskCreate     main.o
    0x08000db0   0x08000db0   0x00000004   Code   RO         3141    i.BusFault_Handler  stm32f10x_it.o
    0x08000db4   0x08000db4   0x00000058   Code   RO          872    i.COM1Init          com.o
    0x08000e0c   0x08000e0c   0x00000058   Code   RO          873    i.COM2Init          com.o
    0x08000e64   0x08000e64   0x00000088   Code   RO          569    i.COM2_SendRecProcess  flowmeterhandle.o
    0x08000eec   0x08000eec   0x000000a8   Code   RO          874    i.COM3Init          com.o
    0x08000f94   0x08000f94   0x0000004c   Code   RO          875    i.COM4Init          com.o
    0x08000fe0   0x08000fe0   0x0000001e   Code   RO          956    i.CRCReplace        ptu5x.o
    0x08000ffe   0x08000ffe   0x00000002   PAD
    0x08001000   0x08001000   0x0000003c   Code   RO          458    i.CalCRC16          crc.o
    0x0800103c   0x0800103c   0x0000004c   Code   RO          343    i.CalFlowQRatio     calc.o
    0x08001088   0x08001088   0x0000014c   Code   RO          344    i.CalFlowRatio      calc.o
    0x080011d4   0x080011d4   0x00000048   Code   RO          346    i.CalHeatQRatio     calc.o
    0x0800121c   0x0800121c   0x00000010   Code   RO          347    i.CalRatio          calc.o
    0x0800122c   0x0800122c   0x0000001c   Code   RO          605    i.ChToFloat         modbusprotocol.o
    0x08001248   0x08001248   0x00000010   Code   RO          606    i.ChToINT16         modbusprotocol.o
    0x08001258   0x08001258   0x00000138   Code   RO          349    i.DateChange        calc.o
    0x08001390   0x08001390   0x00000002   Code   RO         3142    i.DebugMon_Handler  stm32f10x_it.o
    0x08001392   0x08001392   0x00000018   Code   RO          836    i.Delayms           delay_io_nvic_init.o
    0x080013aa   0x080013aa   0x00000032   Code   RO          837    i.Delayus           delay_io_nvic_init.o
    0x080013dc   0x080013dc   0x0000014c   Code   RO          237    i.Disp              disp.o
    0x08001528   0x08001528   0x0000007c   Code   RO          238    i.DispBackCheck     disp.o
    0x080015a4   0x080015a4   0x0000002c   Code   RO          241    i.Disp_SendArr      disp.o
    0x080015d0   0x080015d0   0x00000020   Code   RO          242    i.Disp_SendData     disp.o
    0x080015f0   0x080015f0   0x00000068   Code   RO          244    i.Disp_WrFloat      disp.o
    0x08001658   0x08001658   0x00000070   Code   RO          245    i.Disp_WrInt        disp.o
    0x080016c8   0x080016c8   0x000000e0   Code   RO          246    i.Disp_WrRtc        disp.o
    0x080017a8   0x080017a8   0x00000310   Code   RO          350    i.EventRecord       calc.o
    0x08001ab8   0x08001ab8   0x00000040   Code   RO          471    i.FM_Rec            fm25cl64.o
    0x08001af8   0x08001af8   0x0000004c   Code   RO          472    i.FM_Send           fm25cl64.o
    0x08001b44   0x08001b44   0x00000018   Code   RO          608    i.FloatToCh         modbusprotocol.o
    0x08001b5c   0x08001b5c   0x00000116   Code   RO         1130    i.GPIO_Init         stm32f10x_gpio.o
    0x08001c72   0x08001c72   0x00000012   Code   RO         1134    i.GPIO_ReadInputDataBit  stm32f10x_gpio.o
    0x08001c84   0x08001c84   0x00000004   Code   RO         1137    i.GPIO_ResetBits    stm32f10x_gpio.o
    0x08001c88   0x08001c88   0x00000004   Code   RO         1138    i.GPIO_SetBits      stm32f10x_gpio.o
    0x08001c8c   0x08001c8c   0x0000009c   Code   RO          957    i.GetUstcDis2       ptu5x.o
    0x08001d28   0x08001d28   0x000000f0   Code   RO          958    i.GetUstcToPC       ptu5x.o
    0x08001e18   0x08001e18   0x00000038   Code   RO          819    i.GetVin            adc.o
    0x08001e50   0x08001e50   0x00000038   Code   RO            3    i.Get_JTAG_ID       main.o
    0x08001e88   0x08001e88   0x00000004   Code   RO         3143    i.HardFault_Handler  stm32f10x_it.o
    0x08001e8c   0x08001e8c   0x000001c4   Code   RO          248    i.HighPstDis        disp.o
    0x08002050   0x08002050   0x0000000a   Code   RO          609    i.INT16ToCh         modbusprotocol.o
    0x0800205a   0x0800205a   0x00000002   PAD
    0x0800205c   0x0800205c   0x00000180   Code   RO          838    i.IO_Init           delay_io_nvic_init.o
    0x080021dc   0x080021dc   0x00000010   Code   RO         2778    i.IWDG_Enable       stm32f10x_iwdg.o
    0x080021ec   0x080021ec   0x00000010   Code   RO         2780    i.IWDG_ReloadCounter  stm32f10x_iwdg.o
    0x080021fc   0x080021fc   0x00000020   Code   RO          839    i.IWDG_Reset        delay_io_nvic_init.o
    0x0800221c   0x0800221c   0x0000000c   Code   RO         2781    i.IWDG_SetPrescaler  stm32f10x_iwdg.o
    0x08002228   0x08002228   0x0000000c   Code   RO         2782    i.IWDG_SetReload    stm32f10x_iwdg.o
    0x08002234   0x08002234   0x0000000c   Code   RO         2783    i.IWDG_WriteAccessCmd  stm32f10x_iwdg.o
    0x08002240   0x08002240   0x00000bc4   Code   RO          611    i.MbRegRead         modbusprotocol.o
    0x08002e04   0x08002e04   0x00000004   Code   RO         3144    i.MemManage_Handler  stm32f10x_it.o
    0x08002e08   0x08002e08   0x00000002   Code   RO         3145    i.NMI_Handler       stm32f10x_it.o
    0x08002e0a   0x08002e0a   0x000000a2   Code   RO          840    i.NVIC_Configuration  delay_io_nvic_init.o
    0x08002eac   0x08002eac   0x00000070   Code   RO         1005    i.NVIC_Init         misc.o
    0x08002f1c   0x08002f1c   0x00000014   Code   RO         1006    i.NVIC_PriorityGroupConfig  misc.o
    0x08002f30   0x08002f30   0x00000024   Code   RO         3650    i.OSInit            os_core.o
    0x08002f54   0x08002f54   0x00000002   Code   RO         3565    i.OSInitHookBegin   os_cpu_c.o
    0x08002f56   0x08002f56   0x00000002   Code   RO         3566    i.OSInitHookEnd     os_cpu_c.o
    0x08002f58   0x08002f58   0x00000024   Code   RO         3651    i.OSIntEnter        os_core.o
    0x08002f7c   0x08002f7c   0x00000090   Code   RO         3652    i.OSIntExit         os_core.o
    0x0800300c   0x0800300c   0x00000048   Code   RO         3655    i.OSStart           os_core.o
    0x08003054   0x08003054   0x00000002   Code   RO         3567    i.OSTCBInitHook     os_cpu_c.o
    0x08003056   0x08003056   0x00000002   PAD
    0x08003058   0x08003058   0x000000ac   Code   RO         3850    i.OSTaskCreate      os_task.o
    0x08003104   0x08003104   0x000000c0   Code   RO         3851    i.OSTaskCreateExt   os_task.o
    0x080031c4   0x080031c4   0x00000002   Code   RO         3568    i.OSTaskCreateHook  os_cpu_c.o
    0x080031c6   0x080031c6   0x00000002   Code   RO         3570    i.OSTaskIdleHook    os_cpu_c.o
    0x080031c8   0x080031c8   0x000000ac   Code   RO         3855    i.OSTaskNameSet     os_task.o
    0x08003274   0x08003274   0x00000002   Code   RO         3571    i.OSTaskStatHook    os_cpu_c.o
    0x08003276   0x08003276   0x00000002   PAD
    0x08003278   0x08003278   0x000000a0   Code   RO         3858    i.OSTaskStkChk      os_task.o
    0x08003318   0x08003318   0x0000009a   Code   RO         3572    i.OSTaskStkInit     os_cpu_c.o
    0x080033b2   0x080033b2   0x00000002   PAD
    0x080033b4   0x080033b4   0x000000b8   Code   RO         3859    i.OSTaskSuspend     os_task.o
    0x0800346c   0x0800346c   0x00000002   Code   RO         3573    i.OSTaskSwHook      os_cpu_c.o
    0x0800346e   0x0800346e   0x00000002   PAD
    0x08003470   0x08003470   0x00000070   Code   RO         3927    i.OSTimeDly         os_time.o
    0x080034e0   0x080034e0   0x000000e0   Code   RO         3657    i.OSTimeTick        os_core.o
    0x080035c0   0x080035c0   0x00000002   Code   RO         3574    i.OSTimeTickHook    os_cpu_c.o
    0x080035c2   0x080035c2   0x00000002   Code   RO         3660    i.OS_InitEventList  os_core.o
    0x080035c4   0x080035c4   0x00000054   Code   RO         3661    i.OS_InitMisc       os_core.o
    0x08003618   0x08003618   0x00000048   Code   RO         3662    i.OS_InitRdyList    os_core.o
    0x08003660   0x08003660   0x00000068   Code   RO         3663    i.OS_InitTCBList    os_core.o
    0x080036c8   0x080036c8   0x00000050   Code   RO         3664    i.OS_InitTaskIdle   os_core.o
    0x08003718   0x08003718   0x00000050   Code   RO         3665    i.OS_InitTaskStat   os_core.o
    0x08003768   0x08003768   0x00000012   Code   RO         3666    i.OS_MemClr         os_core.o
    0x0800377a   0x0800377a   0x00000002   PAD
    0x0800377c   0x0800377c   0x00000074   Code   RO         3668    i.OS_Sched          os_core.o
    0x080037f0   0x080037f0   0x0000002c   Code   RO         3669    i.OS_SchedNew       os_core.o
    0x0800381c   0x0800381c   0x0000001c   Code   RO         3670    i.OS_StrCopy        os_core.o
    0x08003838   0x08003838   0x00000014   Code   RO         3671    i.OS_StrLen         os_core.o
    0x0800384c   0x0800384c   0x00000114   Code   RO         3672    i.OS_TCBInit        os_core.o
    0x08003960   0x08003960   0x00000024   Code   RO         3673    i.OS_TaskIdle       os_core.o
    0x08003984   0x08003984   0x00000088   Code   RO         3674    i.OS_TaskStat       os_core.o
    0x08003a0c   0x08003a0c   0x0000003c   Code   RO         3675    i.OS_TaskStatStkChk  os_core.o
    0x08003a48   0x08003a48   0x0000001a   Code   RO         3860    i.OS_TaskStkClr     os_task.o
    0x08003a62   0x08003a62   0x00000002   PAD
    0x08003a64   0x08003a64   0x000000bc   Code   RO          531    i.Out4_20mA         timer.o
    0x08003b20   0x08003b20   0x00000054   Code   RO            4    i.PowerDetection    main.o
    0x08003b74   0x08003b74   0x00000084   Code   RO          352    i.PowerDownEvent    calc.o
    0x08003bf8   0x08003bf8   0x00000018   Code   RO         1238    i.RCC_ADCCLKConfig  stm32f10x_rcc.o
    0x08003c10   0x08003c10   0x00000020   Code   RO         1240    i.RCC_APB1PeriphClockCmd  stm32f10x_rcc.o
    0x08003c30   0x08003c30   0x00000020   Code   RO         1241    i.RCC_APB1PeriphResetCmd  stm32f10x_rcc.o
    0x08003c50   0x08003c50   0x00000020   Code   RO         1242    i.RCC_APB2PeriphClockCmd  stm32f10x_rcc.o
    0x08003c70   0x08003c70   0x00000020   Code   RO         1243    i.RCC_APB2PeriphResetCmd  stm32f10x_rcc.o
    0x08003c90   0x08003c90   0x000000d4   Code   RO         1250    i.RCC_GetClocksFreq  stm32f10x_rcc.o
    0x08003d64   0x08003d64   0x00000094   Code   RO          762    i.RcvByte           pcf8563.o
    0x08003df8   0x08003df8   0x000000f0   Code   RO          677    i.ReadCfg           memory.o
    0x08003ee8   0x08003ee8   0x00000050   Code   RO          473    i.ReadFM            fm25cl64.o
    0x08003f38   0x08003f38   0x000000a4   Code   RO          678    i.ReadHisP          memory.o
    0x08003fdc   0x08003fdc   0x00000070   Code   RO          763    i.ReadPCF8563       pcf8563.o
    0x0800404c   0x0800404c   0x00000018   Code   RO          679    i.ReadPar           memory.o
    0x08004064   0x08004064   0x0000007c   Code   RO          680    i.ReadRunTime       memory.o
    0x080040e0   0x080040e0   0x00000080   Code   RO          681    i.ReadSumFlowQ      memory.o
    0x08004160   0x08004160   0x00000080   Code   RO          682    i.ReadSumHeatQ      memory.o
    0x080041e0   0x080041e0   0x000000f8   Code   RO          764    i.ReadTime          pcf8563.o
    0x080042d8   0x080042d8   0x0000004c   Code   RO          614    i.Read_Ret          modbusprotocol.o
    0x08004324   0x08004324   0x00000108   Code   RO          944    i.RelayTask         relay.o
    0x0800442c   0x0800442c   0x000001d0   Code   RO          249    i.RxDataAnalyze     disp.o
    0x080045fc   0x080045fc   0x00000002   Code   RO         3147    i.SVC_Handler       stm32f10x_it.o
    0x080045fe   0x080045fe   0x00000002   PAD
    0x08004600   0x08004600   0x000000cc   Code   RO          765    i.SendByte          pcf8563.o
    0x080046cc   0x080046cc   0x00000024   Code   RO          532    i.SetIuA            timer.o
    0x080046f0   0x080046f0   0x00000008   Code   RO         3107    i.SetSysClock       system_stm32f10x.o
    0x080046f8   0x080046f8   0x000000d8   Code   RO         3108    i.SetSysClockTo24   system_stm32f10x.o
    0x080047d0   0x080047d0   0x00000078   Code   RO          766    i.Start_I2c         pcf8563.o
    0x08004848   0x08004848   0x0000005c   Code   RO          767    i.Stop_I2c          pcf8563.o
    0x080048a4   0x080048a4   0x00000010   Code   RO         3148    i.SysTick_Handler   stm32f10x_it.o
    0x080048b4   0x080048b4   0x00000064   Code   RO            5    i.SysTick_init      main.o
    0x08004918   0x08004918   0x00000060   Code   RO         3110    i.SystemInit        system_stm32f10x.o
    0x08004978   0x08004978   0x00000068   Code   RO          533    i.TIM3Init          timer.o
    0x080049e0   0x080049e0   0x00000048   Code   RO          534    i.TIM4Init          timer.o
    0x08004a28   0x08004a28   0x000000a8   Code   RO          535    i.TIM4_IRQHandler   timer.o
    0x08004ad0   0x08004ad0   0x00000006   Code   RO         1832    i.TIM_ClearFlag     stm32f10x_tim.o
    0x08004ad6   0x08004ad6   0x00000006   Code   RO         1833    i.TIM_ClearITPendingBit  stm32f10x_tim.o
    0x08004adc   0x08004adc   0x00000018   Code   RO         1838    i.TIM_Cmd           stm32f10x_tim.o
    0x08004af4   0x08004af4   0x000001e8   Code   RO         1843    i.TIM_DeInit        stm32f10x_tim.o
    0x08004cdc   0x08004cdc   0x00000006   Code   RO         1853    i.TIM_GetCapture1   stm32f10x_tim.o
    0x08004ce2   0x08004ce2   0x00000006   Code   RO         1857    i.TIM_GetCounter    stm32f10x_tim.o
    0x08004ce8   0x08004ce8   0x00000022   Code   RO         1859    i.TIM_GetITStatus   stm32f10x_tim.o
    0x08004d0a   0x08004d0a   0x00000012   Code   RO         1863    i.TIM_ITConfig      stm32f10x_tim.o
    0x08004d1c   0x08004d1c   0x000000a0   Code   RO         1877    i.TIM_OC3Init       stm32f10x_tim.o
    0x08004dbc   0x08004dbc   0x00000004   Code   RO         1899    i.TIM_SetCompare1   stm32f10x_tim.o
    0x08004dc0   0x08004dc0   0x00000004   Code   RO         1901    i.TIM_SetCompare3   stm32f10x_tim.o
    0x08004dc4   0x08004dc4   0x000000a4   Code   RO         1909    i.TIM_TimeBaseInit  stm32f10x_tim.o
    0x08004e68   0x08004e68   0x0000009c   Code   RO            6    i.Task0             main.o
    0x08004f04   0x08004f04   0x00000018   Code   RO            7    i.Task1             main.o
    0x08004f1c   0x08004f1c   0x0000003c   Code   RO            8    i.Task2             main.o
    0x08004f58   0x08004f58   0x000000bc   Code   RO            9    i.Task3             main.o
    0x08005014   0x08005014   0x00000078   Code   RO           10    i.Task4             main.o
    0x0800508c   0x0800508c   0x00000010   Code   RO           11    i.Task5             main.o
    0x0800509c   0x0800509c   0x00000010   Code   RO           12    i.Task6             main.o
    0x080050ac   0x080050ac   0x00000018   Code   RO           13    i.Task7             main.o
    0x080050c4   0x080050c4   0x00000030   Code   RO          877    i.Tx2Send           com.o
    0x080050f4   0x080050f4   0x00000050   Code   RO          878    i.Tx3Send           com.o
    0x08005144   0x08005144   0x000000c8   Code   RO          879    i.UART4_IRQHandler  com.o
    0x0800520c   0x0800520c   0x000000d8   Code   RO          880    i.USART1_IRQHandler  com.o
    0x080052e4   0x080052e4   0x000000d4   Code   RO          881    i.USART2_IRQHandler  com.o
    0x080053b8   0x080053b8   0x000000f0   Code   RO          882    i.USART3_IRQHandler  com.o
    0x080054a8   0x080054a8   0x0000001e   Code   RO         1439    i.USART_ClearITPendingBit  stm32f10x_usart.o
    0x080054c6   0x080054c6   0x00000018   Code   RO         1442    i.USART_Cmd         stm32f10x_usart.o
    0x080054de   0x080054de   0x0000001a   Code   RO         1445    i.USART_GetFlagStatus  stm32f10x_usart.o
    0x080054f8   0x080054f8   0x00000054   Code   RO         1446    i.USART_GetITStatus  stm32f10x_usart.o
    0x0800554c   0x0800554c   0x0000004a   Code   RO         1448    i.USART_ITConfig    stm32f10x_usart.o
    0x08005596   0x08005596   0x00000002   PAD
    0x08005598   0x08005598   0x000000d8   Code   RO         1449    i.USART_Init        stm32f10x_usart.o
    0x08005670   0x08005670   0x0000000a   Code   RO         1456    i.USART_ReceiveData  stm32f10x_usart.o
    0x0800567a   0x0800567a   0x00000008   Code   RO         1459    i.USART_SendData    stm32f10x_usart.o
    0x08005682   0x08005682   0x00000010   Code   RO          250    i.UsConfigSet       disp.o
    0x08005692   0x08005692   0x00000002   PAD
    0x08005694   0x08005694   0x000000b0   Code   RO          959    i.UsDataSend        ptu5x.o
    0x08005744   0x08005744   0x00000004   Code   RO         3149    i.UsageFault_Handler  stm32f10x_it.o
    0x08005748   0x08005748   0x000000d0   Code   RO          960    i.UstcComMirror     ptu5x.o
    0x08005818   0x08005818   0x000000a8   Code   RO          961    i.UstcDateUpdate    ptu5x.o
    0x080058c0   0x080058c0   0x000000e0   Code   RO          962    i.UstcWriteGolbal   ptu5x.o
    0x080059a0   0x080059a0   0x0000002c   Code   RO          684    i.WriteCfg          memory.o
    0x080059cc   0x080059cc   0x00000084   Code   RO          355    i.WriteDayHis       calc.o
    0x08005a50   0x08005a50   0x00000058   Code   RO          475    i.WriteFM           fm25cl64.o
    0x08005aa8   0x08005aa8   0x00000050   Code   RO          476    i.WriteFMFill       fm25cl64.o
    0x08005af8   0x08005af8   0x00000028   Code   RO          685    i.WriteHisP         memory.o
    0x08005b20   0x08005b20   0x00000084   Code   RO          356    i.WriteMonHis       calc.o
    0x08005ba4   0x08005ba4   0x00000058   Code   RO          768    i.WritePCF8563      pcf8563.o
    0x08005bfc   0x08005bfc   0x000000a4   Code   RO          686    i.WritePar          memory.o
    0x08005ca0   0x08005ca0   0x00000028   Code   RO          687    i.WriteRunTime      memory.o
    0x08005cc8   0x08005cc8   0x00000028   Code   RO          688    i.WriteSumFlowQ     memory.o
    0x08005cf0   0x08005cf0   0x00000028   Code   RO          689    i.WriteSumHeatQ     memory.o
    0x08005d18   0x08005d18   0x000000e4   Code   RO          769    i.WriteTime         pcf8563.o
    0x08005dfc   0x08005dfc   0x00000084   Code   RO          357    i.WriteYearHis      calc.o
    0x08005e80   0x08005e80   0x00000024   Code   RO          477    i.Write_Disable     fm25cl64.o
    0x08005ea4   0x08005ea4   0x00000024   Code   RO          478    i.Write_Enable      fm25cl64.o
    0x08005ec8   0x08005ec8   0x00000038   Code   RO          615    i.Write_Ret         modbusprotocol.o
    0x08005f00   0x08005f00   0x00000028   Code   RO         4824    i.__ARM_fpclassify  m_ws.l(fpclassify.o)
    0x08005f28   0x08005f28   0x00000388   Code   RO         4770    i.__ieee754_rem_pio2  m_ws.l(rred.o)
    0x080062b0   0x080062b0   0x000000aa   Code   RO         4826    i.__kernel_poly     m_ws.l(poly.o)
    0x0800635a   0x0800635a   0x00000002   PAD
    0x0800635c   0x0800635c   0x0000027c   Code   RO         4775    i.__kernel_tan      m_ws.l(tan_i.o)
    0x080065d8   0x080065d8   0x00000006   Code   RO         4757    i.__mathlib_dbl_infnan  m_ws.l(dunder.o)
    0x080065de   0x080065de   0x0000000c   Code   RO         4759    i.__mathlib_dbl_invalid  m_ws.l(dunder.o)
    0x080065ea   0x080065ea   0x00000002   PAD
    0x080065ec   0x080065ec   0x00000010   Code   RO         4762    i.__mathlib_dbl_underflow  m_ws.l(dunder.o)
    0x080065fc   0x080065fc   0x0000000e   Code   RO         4834    i.__scatterload_copy  mc_w.l(handlers.o)
    0x0800660a   0x0800660a   0x00000002   Code   RO         4835    i.__scatterload_null  mc_w.l(handlers.o)
    0x0800660c   0x0800660c   0x0000000e   Code   RO         4836    i.__scatterload_zeroinit  mc_w.l(handlers.o)
    0x0800661a   0x0800661a   0x00000002   PAD
    0x0800661c   0x0800661c   0x0000000c   Code   RO         4810    i.__set_errno       mc_w.l(errno.o)
    0x08006628   0x08006628   0x0000007c   Code   RO           14    i.main              main.o
    0x080066a4   0x080066a4   0x00000064   Code   RO         4437    i.tan               m_ws.l(tan.o)
    0x08006708   0x08006708   0x00000200   Data   RO          459    .constdata          crc.o
    0x08006908   0x08006908   0x00000100   Data   RO         3677    .constdata          os_core.o
    0x08006a08   0x08006a08   0x000000c8   Data   RO         4772    .constdata          m_ws.l(rred.o)
    0x08006ad0   0x08006ad0   0x00000060   Data   RO         4776    .constdata          m_ws.l(tan_i.o)
    0x08006b30   0x08006b30   0x00000020   Data   RO         4832    Region$$Table       anon$$obj.o


    Execution Region RW_IRAM1 (Exec base: 0x20000000, Load base: 0x08006b50, Size: 0x00004ea0, Max: 0x0000c000, ABSOLUTE)

    Exec Addr    Load Addr    Size         Type   Attr      Idx    E Section Name        Object

    0x20000000   0x08006b50   0x00000090   Data   RW           16    .data               main.o
    0x20000090   0x08006be0   0x00000006   Data   RW          253    .data               disp.o
    0x20000096   0x08006be6   0x00000002   PAD
    0x20000098   0x08006be8   0x00000012   Data   RW          359    .data               calc.o
    0x200000aa   0x08006bfa   0x00000001   Data   RW          536    .data               timer.o
    0x200000ab   0x08006bfb   0x00000001   Data   RW          770    .data               pcf8563.o
    0x200000ac   0x08006bfc   0x00000001   Data   RW          963    .data               ptu5x.o
    0x200000ad   0x08006bfd   0x00000014   Data   RW         1270    .data               stm32f10x_rcc.o
    0x200000c1   0x08006c11   0x00000003   PAD
    0x200000c4   0x08006c14   0x00000038   Data   RW         3678    .data               os_core.o
    0x200000fc   0x08006c4c   0x00000004   Data   RW         4811    .data               mc_w.l(errno.o)
    0x20000100        -       0x00003f60   Zero   RW           15    .bss                main.o
    0x20004060        -       0x00000064   Zero   RW          251    .bss                disp.o
    0x200040c4        -       0x000009d8   Zero   RW         3676    .bss                os_core.o
    0x20004a9c   0x08006c50   0x00000004   PAD
    0x20004aa0        -       0x00000400   Zero   RW         3217    STACK               startup_stm32f10x_hd.o


==============================================================================

Image component sizes


      Code (inc. data)   RO Data    RW Data    ZI Data      Debug   Object Name

       168         10          0          0          0        996   adc.o
      2120        244          0         18          0       6643   calc.o
      1416        172          0          0          0       5231   com.o
         0          0          0          0          0         32   core_cm3.o
        60         10        512          0          0       1133   crc.o
       652         16          0          0          0       2788   delay_io_nvic_init.o
      1904        174          0          6        100       6375   disp.o
       136         16          0          0          0        666   flowmeterhandle.o
       460         40          0          0          0       3947   fm25cl64.o
      1188        176          0        144      16224     292746   main.o
      1176         62          0          0          0       6192   memory.o
       132         22          0          0          0     258467   misc.o
      3222        448          0          0          0       4915   modbusprotocol.o
      1668        336        256         56       2520      18567   os_core.o
       164         32          0          0          0        312   os_cpu_a.o
       170          0          0          0          0      12720   os_cpu_c.o
       906         64          0          0          0       5468   os_task.o
       112         16          0          0          0        604   os_time.o
      1348         52          0          1          0       5268   pcf8563.o
      1202        144          0          1          0       4801   ptu5x.o
       264         30          0          0          0        468   relay.o
        36          8        304          0       1024        804   startup_stm32f10x_hd.o
       376         10          0          0          0       6949   stm32f10x_adc.o
       304          0          0          0          0       3416   stm32f10x_gpio.o
        38          0          0          0          0      11698   stm32f10x_it.o
        68         30          0          0          0       2250   stm32f10x_iwdg.o
       364         50          0         20          0       5759   stm32f10x_rcc.o
       920        116          0          0          0       7124   stm32f10x_tim.o
       472          6          0          0          0       6379   stm32f10x_usart.o
       320         26          0          0          0       1825   system_stm32f10x.o
       568         64          0          1          0       2581   timer.o

    ----------------------------------------------------------------------
     21960       2374       1104        252      19872     687124   Object Totals
         0          0         32          0          0          0   (incl. Generated)
        26          0          0          5          4          0   (incl. Padding)

    ----------------------------------------------------------------------

      Code (inc. data)   RO Data    RW Data    ZI Data      Debug   Library Member Name

        34          6          0          0          0        204   dunder.o
        40          0          0          0          0         68   fpclassify.o
       170          0          0          0          0         96   poly.o
       904         76        200          0          0        140   rred.o
       100         10          0          0          0         96   tan.o
       636         50         96          0          0        168   tan_i.o
         0          0          0          0          0          0   entry.o
         0          0          0          0          0          0   entry10a.o
         0          0          0          0          0          0   entry11a.o
         4          0          0          0          0          0   entry12b.o
         8          4          0          0          0          0   entry2.o
         4          0          0          0          0          0   entry5.o
         0          0          0          0          0          0   entry7b.o
         0          0          0          0          0          0   entry8b.o
         8          4          0          0          0          0   entry9a.o
        12          6          0          4          0         68   errno.o
        30          0          0          0          0          0   handlers.o
        36          8          0          0          0         68   init.o
         0          0          0          0          0          0   iusefp.o
        30          0          0          0          0         68   llshl.o
        36          0          0          0          0         68   llsshr.o
        32          0          0          0          0         68   llushr.o
        36          0          0          0          0         68   memcpya.o
        36          0          0          0          0        108   memseta.o
        20          0          0          0          0         68   cfcmple.o
        20          0          0          0          0         68   cfrcmple.o
        56          0          0          0          0         88   d2f.o
       334          0          0          0          0        148   dadd.o
       222          0          0          0          0        100   ddiv.o
       186          0          0          0          0        176   depilogue.o
        62          0          0          0          0         80   dfixi.o
        50          0          0          0          0         76   dfixui.o
        34          0          0          0          0         76   dflti.o
        40          0          0          0          0         80   dfltl.o
        26          0          0          0          0         76   dfltui.o
       228          0          0          0          0         96   dmul.o
        46          0          0          0          0         80   dscalb.o
        38          0          0          0          0         68   f2d.o
       176          0          0          0          0        140   fadd.o
       124          0          0          0          0         88   fdiv.o
       110          0          0          0          0        168   fepilogue.o
        18          0          0          0          0         68   fflti.o
        44          0          0          0          0         92   ffltl.o
        10          0          0          0          0         68   ffltui.o
       100          0          0          0          0         76   fmul.o

    ----------------------------------------------------------------------
      4112        164        296          4          0       3268   Library Totals
        12          0          0          0          0          0   (incl. Padding)

    ----------------------------------------------------------------------

      Code (inc. data)   RO Data    RW Data    ZI Data      Debug   Library Name

      1884        142        296          0          0        772   m_ws.l
       272         22          0          4          0        516   mc_w.l
      1944          0          0          0          0       1980   mf_w.l

    ----------------------------------------------------------------------
      4112        164        296          4          0       3268   Library Totals

    ----------------------------------------------------------------------

==============================================================================


      Code (inc. data)   RO Data    RW Data    ZI Data      Debug   

     26072       2538       1400        256      19872     678948   Grand Totals
     26072       2538       1400        256      19872     678948   ELF Image Totals
     26072       2538       1400        256          0          0   ROM Totals

==============================================================================

    Total RO  Size (Code + RO Data)                27472 (  26.83kB)
    Total RW  Size (RW Data + ZI Data)             20128 (  19.66kB)
    Total ROM Size (Code + RO Data + RW Data)      27728 (  27.08kB)

==============================================================================

